

Microchip MPLAB XC8 Assembler V2.31 build 20201012212115 
                                                                                               Sat May 22 20:31:17 2021

Microchip MPLAB XC8 C Compiler v2.31 (Free license) build 20201012212115 Og1 
     1                           	processor	16F887
     2                           	pagewidth 120
     3                           	opt	flic
     4                           	psect	cinit,global,class=CODE,merge=1,delta=2
     5                           	psect	bssCOMMON,global,class=COMMON,space=1,delta=1,noexec
     6                           	psect	bssBANK0,global,class=BANK0,space=1,delta=1,noexec
     7                           	psect	cstackCOMMON,global,class=COMMON,space=1,delta=1,noexec
     8                           	psect	cstackBANK0,global,class=BANK0,space=1,delta=1,noexec
     9                           	psect	maintext,global,class=CODE,split=1,delta=2
    10                           	psect	text1,local,class=CODE,merge=1,delta=2
    11                           	psect	text2,local,class=CODE,merge=1,delta=2
    12                           	psect	text3,local,class=CODE,merge=1,delta=2
    13                           	psect	text4,local,class=CODE,merge=1,delta=2
    14                           	psect	text5,local,class=CODE,merge=1,delta=2
    15                           	psect	text6,local,class=CODE,merge=1,delta=2
    16                           	psect	text7,local,class=CODE,merge=1,delta=2
    17                           	psect	text8,local,class=CODE,merge=1,delta=2
    18                           	psect	text9,local,class=CODE,merge=1,delta=2
    19                           	psect	intentry,global,class=CODE,delta=2
    20                           	psect	functab,global,class=ENTRY,delta=2
    21                           	psect	config,global,abs,ovrld,class=CONFIG,space=4,delta=2,noexec
    22                           	dabs	1,0x7E,2
    23  0000                     
    24                           ; Version 2.20
    25                           ; Generated 12/02/2020 GMT
    26                           ; 
    27                           ; Copyright © 2020, Microchip Technology Inc. and its subsidiaries ("Microchip")
    28                           ; All rights reserved.
    29                           ; 
    30                           ; This software is developed by Microchip Technology Inc. and its subsidiaries ("Microch
      +                          ip").
    31                           ; 
    32                           ; Redistribution and use in source and binary forms, with or without modification, are
    33                           ; permitted provided that the following conditions are met:
    34                           ; 
    35                           ;     1. Redistributions of source code must retain the above copyright notice, this lis
      +                          t of
    36                           ;        conditions and the following disclaimer.
    37                           ; 
    38                           ;     2. Redistributions in binary form must reproduce the above copyright notice, this 
      +                          list
    39                           ;        of conditions and the following disclaimer in the documentation and/or other
    40                           ;        materials provided with the distribution.
    41                           ; 
    42                           ;     3. Microchip's name may not be used to endorse or promote products derived from th
      +                          is
    43                           ;        software without specific prior written permission.
    44                           ; 
    45                           ; THIS SOFTWARE IS PROVIDED BY MICROCHIP "AS IS" AND ANY EXPRESS OR IMPLIED WARRANTIES,
    46                           ; INCLUDING, BUT NOT LIMITED TO, THE IMPLIED WARRANTIES OF MERCHANTABILITY AND FITNESS F
      +                          OR
    47                           ; PURPOSE ARE DISCLAIMED.  IN NO EVENT SHALL MICROCHIP BE LIABLE FOR ANY DIRECT, INDIREC
      +                          T,
    48                           ; INCIDENTAL, SPECIAL, EXEMPLARY, OR CONSEQUENTIAL DAMAGES (INCLUDING BUT NOT LIMITED TO
    49                           ; PROCUREMENT OF SUBSTITUTE GOODS OR SERVICES; LOSS OF USE, DATA OR PROFITS; OR BUSINESS
    50                           ; INTERRUPTION) HOWSOEVER CAUSED AND ON ANY THEORY OF LIABILITY, WHETHER IN CONTRACT, ST
      +                          RICT
    51                           ; LIABILITY, OR TORT (INCLUDING NEGLIGENCE OR OTHERWISE) ARISING IN ANY WAY OUT OF THE U
      +                          SE OF
    52                           ; THIS SOFTWARE, EVEN IF ADVISED OF THE POSSIBILITY OF SUCH DAMAGE.
    53                           ; 
    54                           ; 
    55                           ; Code-generator required, PIC16F887 Definitions
    56                           ; 
    57                           ; SFR Addresses
    58  0000                     	;# 
    59  0001                     	;# 
    60  0002                     	;# 
    61  0003                     	;# 
    62  0004                     	;# 
    63  0005                     	;# 
    64  0006                     	;# 
    65  0007                     	;# 
    66  0008                     	;# 
    67  0009                     	;# 
    68  000A                     	;# 
    69  000B                     	;# 
    70  000C                     	;# 
    71  000D                     	;# 
    72  000E                     	;# 
    73  000E                     	;# 
    74  000F                     	;# 
    75  0010                     	;# 
    76  0011                     	;# 
    77  0012                     	;# 
    78  0013                     	;# 
    79  0014                     	;# 
    80  0015                     	;# 
    81  0015                     	;# 
    82  0016                     	;# 
    83  0017                     	;# 
    84  0018                     	;# 
    85  0019                     	;# 
    86  001A                     	;# 
    87  001B                     	;# 
    88  001B                     	;# 
    89  001C                     	;# 
    90  001D                     	;# 
    91  001E                     	;# 
    92  001F                     	;# 
    93  0081                     	;# 
    94  0085                     	;# 
    95  0086                     	;# 
    96  0087                     	;# 
    97  0088                     	;# 
    98  0089                     	;# 
    99  008C                     	;# 
   100  008D                     	;# 
   101  008E                     	;# 
   102  008F                     	;# 
   103  0090                     	;# 
   104  0091                     	;# 
   105  0092                     	;# 
   106  0093                     	;# 
   107  0093                     	;# 
   108  0093                     	;# 
   109  0094                     	;# 
   110  0095                     	;# 
   111  0096                     	;# 
   112  0097                     	;# 
   113  0098                     	;# 
   114  0099                     	;# 
   115  009A                     	;# 
   116  009B                     	;# 
   117  009C                     	;# 
   118  009D                     	;# 
   119  009E                     	;# 
   120  009F                     	;# 
   121  0105                     	;# 
   122  0107                     	;# 
   123  0108                     	;# 
   124  0109                     	;# 
   125  010C                     	;# 
   126  010C                     	;# 
   127  010D                     	;# 
   128  010E                     	;# 
   129  010F                     	;# 
   130  0185                     	;# 
   131  0187                     	;# 
   132  0188                     	;# 
   133  0189                     	;# 
   134  018C                     	;# 
   135  018D                     	;# 
   136  0000                     	;# 
   137  0001                     	;# 
   138  0002                     	;# 
   139  0003                     	;# 
   140  0004                     	;# 
   141  0005                     	;# 
   142  0006                     	;# 
   143  0007                     	;# 
   144  0008                     	;# 
   145  0009                     	;# 
   146  000A                     	;# 
   147  000B                     	;# 
   148  000C                     	;# 
   149  000D                     	;# 
   150  000E                     	;# 
   151  000E                     	;# 
   152  000F                     	;# 
   153  0010                     	;# 
   154  0011                     	;# 
   155  0012                     	;# 
   156  0013                     	;# 
   157  0014                     	;# 
   158  0015                     	;# 
   159  0015                     	;# 
   160  0016                     	;# 
   161  0017                     	;# 
   162  0018                     	;# 
   163  0019                     	;# 
   164  001A                     	;# 
   165  001B                     	;# 
   166  001B                     	;# 
   167  001C                     	;# 
   168  001D                     	;# 
   169  001E                     	;# 
   170  001F                     	;# 
   171  0081                     	;# 
   172  0085                     	;# 
   173  0086                     	;# 
   174  0087                     	;# 
   175  0088                     	;# 
   176  0089                     	;# 
   177  008C                     	;# 
   178  008D                     	;# 
   179  008E                     	;# 
   180  008F                     	;# 
   181  0090                     	;# 
   182  0091                     	;# 
   183  0092                     	;# 
   184  0093                     	;# 
   185  0093                     	;# 
   186  0093                     	;# 
   187  0094                     	;# 
   188  0095                     	;# 
   189  0096                     	;# 
   190  0097                     	;# 
   191  0098                     	;# 
   192  0099                     	;# 
   193  009A                     	;# 
   194  009B                     	;# 
   195  009C                     	;# 
   196  009D                     	;# 
   197  009E                     	;# 
   198  009F                     	;# 
   199  0105                     	;# 
   200  0107                     	;# 
   201  0108                     	;# 
   202  0109                     	;# 
   203  010C                     	;# 
   204  010C                     	;# 
   205  010D                     	;# 
   206  010E                     	;# 
   207  010F                     	;# 
   208  0185                     	;# 
   209  0187                     	;# 
   210  0188                     	;# 
   211  0189                     	;# 
   212  018C                     	;# 
   213  018D                     	;# 
   214                           
   215 ;; Function _recepcion_rx is unused but had its address taken
   216  001A                     _RCREG	set	26
   217  0008                     _PORTDbits	set	8
   218  000B                     _INTCONbits	set	11
   219  0018                     _RCSTAbits	set	24
   220  0012                     _T2CONbits	set	18
   221  0008                     _PORTD	set	8
   222  0007                     _PORTC	set	7
   223  0006                     _PORTB	set	6
   224  0005                     _PORTA	set	5
   225  0009                     _PORTE	set	9
   226  001D                     _CCP2CONbits	set	29
   227  001B                     _CCPR2L	set	27
   228  0017                     _CCP1CONbits	set	23
   229  001E                     _ADRESH	set	30
   230  0015                     _CCPR1L	set	21
   231  001F                     _ADCON0bits	set	31
   232  000C                     _PIR1bits	set	12
   233  008C                     _PIE1bits	set	140
   234  009A                     _SPBRGH	set	154
   235  0099                     _SPBRG	set	153
   236  0098                     _TXSTAbits	set	152
   237  0092                     _PR2	set	146
   238  009F                     _ADCON1bits	set	159
   239  008F                     _OSCCONbits	set	143
   240  0089                     _TRISE	set	137
   241  0088                     _TRISDbits	set	136
   242  0087                     _TRISCbits	set	135
   243  0086                     _TRISBbits	set	134
   244  0085                     _TRISAbits	set	133
   245  009E                     _ADRESL	set	158
   246  0187                     _BAUDCTLbits	set	391
   247  0188                     _ANSELbits	set	392
   248                           
   249                           	psect	cinit
   250  000F                     start_initialization:	
   251                           ; #config settings
   252                           
   253  000F                     __initialization:
   254                           
   255                           ; Clear objects allocated to COMMON
   256  000F  01F0               	clrf	__pbssCOMMON& (0+127)
   257  0010  01F1               	clrf	(__pbssCOMMON+1)& (0+127)
   258  0011  01F2               	clrf	(__pbssCOMMON+2)& (0+127)
   259  0012  01F3               	clrf	(__pbssCOMMON+3)& (0+127)
   260  0013  01F4               	clrf	(__pbssCOMMON+4)& (0+127)
   261  0014  01F5               	clrf	(__pbssCOMMON+5)& (0+127)
   262                           
   263                           ; Clear objects allocated to BANK0
   264  0015  1283               	bcf	3,5	;RP0=0, select bank0
   265  0016  1303               	bcf	3,6	;RP1=0, select bank0
   266  0017  01A0               	clrf	__pbssBANK0& (0+127)
   267  0018  01A1               	clrf	(__pbssBANK0+1)& (0+127)
   268  0019  01A2               	clrf	(__pbssBANK0+2)& (0+127)
   269  001A  01A3               	clrf	(__pbssBANK0+3)& (0+127)
   270  001B  01A4               	clrf	(__pbssBANK0+4)& (0+127)
   271  001C  01A5               	clrf	(__pbssBANK0+5)& (0+127)
   272  001D  01A6               	clrf	(__pbssBANK0+6)& (0+127)
   273  001E  01A7               	clrf	(__pbssBANK0+7)& (0+127)
   274  001F  01A8               	clrf	(__pbssBANK0+8)& (0+127)
   275  0020                     end_of_initialization:	
   276                           ;End of C runtime variable initialization code
   277                           
   278  0020                     __end_of__initialization:
   279  0020  0183               	clrf	3
   280  0021  120A  118A  2AAE   	ljmp	_main	;jump to C main() function
   281                           
   282                           	psect	bssCOMMON
   283  0070                     __pbssCOMMON:
   284  0070                     _servo1_2:
   285  0070                     	ds	2
   286  0072                     _servo1_1:
   287  0072                     	ds	2
   288  0074                     _x:
   289  0074                     	ds	2
   290                           
   291                           	psect	bssBANK0
   292  0020                     __pbssBANK0:
   293  0020                     _servo3_2:
   294  0020                     	ds	2
   295  0022                     _servo3_1:
   296  0022                     	ds	2
   297  0024                     _servo2_2:
   298  0024                     	ds	2
   299  0026                     _servo2_1:
   300  0026                     	ds	2
   301  0028                     _dato_recibido:
   302  0028                     	ds	1
   303                           
   304                           	psect	cstackCOMMON
   305  0076                     __pcstackCOMMON:
   306  0076                     ?_setup:
   307  0076                     ?_servo1_19:	
   308                           ; 1 bytes @ 0x0
   309                           
   310  0076                     ?_servo1_18:	
   311                           ; 1 bytes @ 0x0
   312                           
   313  0076                     ?_servo2_19:	
   314                           ; 1 bytes @ 0x0
   315                           
   316  0076                     ?_servo2_18:	
   317                           ; 1 bytes @ 0x0
   318                           
   319  0076                     ?_servo3_19:	
   320                           ; 1 bytes @ 0x0
   321                           
   322  0076                     ?_servo3_18:	
   323                           ; 1 bytes @ 0x0
   324                           
   325  0076                     ?_servos_loop:	
   326                           ; 1 bytes @ 0x0
   327                           
   328  0076                     ?_isr:	
   329                           ; 1 bytes @ 0x0
   330                           
   331  0076                     ??_isr:	
   332                           ; 1 bytes @ 0x0
   333                           
   334  0076                     ?_main:	
   335                           ; 1 bytes @ 0x0
   336                           
   337                           
   338                           ; 1 bytes @ 0x0
   339  0076                     	ds	4
   340                           
   341                           	psect	cstackBANK0
   342  0029                     __pcstackBANK0:
   343  0029                     ??_setup:
   344  0029                     ??_servo1_19:	
   345                           ; 1 bytes @ 0x0
   346                           
   347  0029                     ??_servo1_18:	
   348                           ; 1 bytes @ 0x0
   349                           
   350  0029                     ??_servo2_19:	
   351                           ; 1 bytes @ 0x0
   352                           
   353  0029                     ??_servo2_18:	
   354                           ; 1 bytes @ 0x0
   355                           
   356  0029                     ??_servo3_19:	
   357                           ; 1 bytes @ 0x0
   358                           
   359  0029                     ??_servo3_18:	
   360                           ; 1 bytes @ 0x0
   361                           
   362  0029                     ??_servos_loop:	
   363                           ; 1 bytes @ 0x0
   364                           
   365                           
   366                           ; 1 bytes @ 0x0
   367  0029                     	ds	2
   368  002B                     ??_main:
   369                           
   370                           ; 1 bytes @ 0x2
   371  002B                     	ds	2
   372                           
   373                           	psect	maintext
   374  02AE                     __pmaintext:	
   375 ;;
   376 ;;Main: autosize = 0, tempsize = 2, incstack = 0, save=0
   377 ;;
   378 ;; *************** function _main *****************
   379 ;; Defined at:
   380 ;;		line 110 in file "main_brazo.c"
   381 ;; Parameters:    Size  Location     Type
   382 ;;		None
   383 ;; Auto vars:     Size  Location     Type
   384 ;;		None
   385 ;; Return value:  Size  Location     Type
   386 ;;                  1    wreg      void 
   387 ;; Registers used:
   388 ;;		wreg, fsr0l, fsr0h, status,2, status,0, btemp+1, pclath, cstack
   389 ;; Tracked objects:
   390 ;;		On entry : B00/0
   391 ;;		On exit  : 0/0
   392 ;;		Unchanged: 0/0
   393 ;; Data sizes:     COMMON   BANK0   BANK1   BANK3   BANK2
   394 ;;      Params:         0       0       0       0       0
   395 ;;      Locals:         0       0       0       0       0
   396 ;;      Temps:          0       2       0       0       0
   397 ;;      Totals:         0       2       0       0       0
   398 ;;Total ram usage:        2 bytes
   399 ;; Hardware stack levels required when called:    2
   400 ;; This function calls:
   401 ;;		_servo1_18
   402 ;;		_servo1_19
   403 ;;		_servo2_18
   404 ;;		_servo2_19
   405 ;;		_servo3_18
   406 ;;		_servo3_19
   407 ;;		_servos_loop
   408 ;;		_setup
   409 ;; This function is called by:
   410 ;;		Startup code after reset
   411 ;; This function uses a non-reentrant model
   412 ;;
   413                           
   414                           
   415                           ;psect for function _main
   416  02AE                     _main:
   417  02AE                     l1668:	
   418                           ;incstack = 0
   419                           ; Regs used in _main: [wreg-fsr0h+status,2+status,0+btemp+1+pclath+cstack]
   420                           
   421                           
   422                           ;main_brazo.c: 112:     setup();
   423  02AE  120A  118A  2232  120A  118A  	fcall	_setup
   424  02B3                     l1670:
   425                           
   426                           ;main_brazo.c: 116:     {;main_brazo.c: 117:         dato_recibido = recepcion_rx;
   427  02B3  30D7               	movlw	(low (0-fpbase))& (0+255)
   428  02B4  1283               	bcf	3,5	;RP0=0, select bank0
   429  02B5  1303               	bcf	3,6	;RP1=0, select bank0
   430  02B6  00AB               	movwf	??_main
   431  02B7  082B               	movf	??_main,w
   432  02B8  00A8               	movwf	_dato_recibido
   433                           
   434                           ;main_brazo.c: 118:         switch(dato_recibido)
   435  02B9  2ADE               	goto	l1686
   436  02BA                     l1672:
   437                           
   438                           ;main_brazo.c: 122:                 servo1_19();
   439  02BA  120A  118A  23DF  120A  118A  	fcall	_servo1_19
   440                           
   441                           ;main_brazo.c: 123:                 break;
   442  02BF  2AFA               	goto	l1688
   443  02C0                     l1674:
   444                           
   445                           ;main_brazo.c: 125:                 servo1_18();
   446  02C0  120A  118A  2412  120A  118A  	fcall	_servo1_18
   447                           
   448                           ;main_brazo.c: 126:                 break;
   449  02C5  2AFA               	goto	l1688
   450  02C6                     l1676:
   451                           
   452                           ;main_brazo.c: 130:                 servo2_19();
   453  02C6  120A  118A  2371  120A  118A  	fcall	_servo2_19
   454                           
   455                           ;main_brazo.c: 131:                 break;
   456  02CB  2AFA               	goto	l1688
   457  02CC                     l1678:
   458                           
   459                           ;main_brazo.c: 133:                 servo2_18();
   460  02CC  120A  118A  23A8  120A  118A  	fcall	_servo2_18
   461                           
   462                           ;main_brazo.c: 134:                 break;
   463  02D1  2AFA               	goto	l1688
   464  02D2                     l1680:
   465                           
   466                           ;main_brazo.c: 138:                 servo3_19();
   467  02D2  120A  118A  2303  120A  118A  	fcall	_servo3_19
   468                           
   469                           ;main_brazo.c: 139:                 break;
   470  02D7  2AFA               	goto	l1688
   471  02D8                     l1682:
   472                           
   473                           ;main_brazo.c: 141:                 servo3_18();
   474  02D8  120A  118A  233A  120A  118A  	fcall	_servo3_18
   475                           
   476                           ;main_brazo.c: 142:                 break;
   477  02DD  2AFA               	goto	l1688
   478  02DE                     l1686:
   479  02DE  0828               	movf	_dato_recibido,w
   480  02DF  00AB               	movwf	??_main
   481  02E0  01AC               	clrf	??_main+1
   482                           
   483                           ; Switch on 2 bytes has been partitioned into a top level switch of size 1, and 1 sub-sw
      +                          itches
   484                           ; Switch size 1, requested type "simple"
   485                           ; Number of cases is 1, Range of values is 0 to 0
   486                           ; switch strategies available:
   487                           ; Name         Instructions Cycles
   488                           ; simple_byte            4     3 (average)
   489                           ; direct_byte           11     8 (fixed)
   490                           ; jumptable            260     6 (fixed)
   491                           ;	Chosen strategy is simple_byte
   492  02E1  082C               	movf	??_main+1,w
   493  02E2  3A00               	xorlw	0	; case 0
   494  02E3  1903               	skipnz
   495  02E4  2AE6               	goto	l1714
   496  02E5  2AFA               	goto	l1688
   497  02E6                     l1714:
   498                           
   499                           ; Switch size 1, requested type "simple"
   500                           ; Number of cases is 6, Range of values is 49 to 54
   501                           ; switch strategies available:
   502                           ; Name         Instructions Cycles
   503                           ; simple_byte           19    10 (average)
   504                           ; direct_byte           29    11 (fixed)
   505                           ; jumptable            263     9 (fixed)
   506                           ;	Chosen strategy is simple_byte
   507  02E6  082B               	movf	??_main,w
   508  02E7  3A31               	xorlw	49	; case 49
   509  02E8  1903               	skipnz
   510  02E9  2ABA               	goto	l1672
   511  02EA  3A03               	xorlw	3	; case 50
   512  02EB  1903               	skipnz
   513  02EC  2AC0               	goto	l1674
   514  02ED  3A01               	xorlw	1	; case 51
   515  02EE  1903               	skipnz
   516  02EF  2AC6               	goto	l1676
   517  02F0  3A07               	xorlw	7	; case 52
   518  02F1  1903               	skipnz
   519  02F2  2ACC               	goto	l1678
   520  02F3  3A01               	xorlw	1	; case 53
   521  02F4  1903               	skipnz
   522  02F5  2AD2               	goto	l1680
   523  02F6  3A03               	xorlw	3	; case 54
   524  02F7  1903               	skipnz
   525  02F8  2AD8               	goto	l1682
   526  02F9  2AFA               	goto	l1688
   527  02FA                     l1688:
   528                           
   529                           ;main_brazo.c: 148:         servos_loop();
   530  02FA  120A  118A  202A  120A  118A  	fcall	_servos_loop
   531  02FF  2AB3               	goto	l1670
   532  0300  120A  118A  280C   	ljmp	start
   533  0303                     __end_of_main:
   534                           
   535                           	psect	text1
   536  0232                     __ptext1:	
   537 ;; *************** function _setup *****************
   538 ;; Defined at:
   539 ;;		line 155 in file "main_brazo.c"
   540 ;; Parameters:    Size  Location     Type
   541 ;;		None
   542 ;; Auto vars:     Size  Location     Type
   543 ;;		None
   544 ;; Return value:  Size  Location     Type
   545 ;;                  1    wreg      void 
   546 ;; Registers used:
   547 ;;		wreg, status,2, status,0
   548 ;; Tracked objects:
   549 ;;		On entry : 0/0
   550 ;;		On exit  : 0/0
   551 ;;		Unchanged: 0/0
   552 ;; Data sizes:     COMMON   BANK0   BANK1   BANK3   BANK2
   553 ;;      Params:         0       0       0       0       0
   554 ;;      Locals:         0       0       0       0       0
   555 ;;      Temps:          0       1       0       0       0
   556 ;;      Totals:         0       1       0       0       0
   557 ;;Total ram usage:        1 bytes
   558 ;; Hardware stack levels used:    1
   559 ;; Hardware stack levels required when called:    1
   560 ;; This function calls:
   561 ;;		Nothing
   562 ;; This function is called by:
   563 ;;		_main
   564 ;; This function uses a non-reentrant model
   565 ;;
   566                           
   567                           
   568                           ;psect for function _setup
   569  0232                     _setup:
   570  0232                     l1410:	
   571                           ;incstack = 0
   572                           ; Regs used in _setup: [wreg+status,2+status,0]
   573                           
   574                           
   575                           ;main_brazo.c: 158:     ANSELbits.ANS0 = 1;
   576  0232  1683               	bsf	3,5	;RP0=1, select bank3
   577  0233  1703               	bsf	3,6	;RP1=1, select bank3
   578  0234  1408               	bsf	8,0	;volatile
   579                           
   580                           ;main_brazo.c: 159:     ANSELbits.ANS1 = 1;
   581  0235  1488               	bsf	8,1	;volatile
   582                           
   583                           ;main_brazo.c: 160:     ANSELbits.ANS2 = 1;
   584  0236  1508               	bsf	8,2	;volatile
   585                           
   586                           ;main_brazo.c: 162:     TRISAbits.TRISA0 = 1;
   587  0237  1683               	bsf	3,5	;RP0=1, select bank1
   588  0238  1303               	bcf	3,6	;RP1=0, select bank1
   589  0239  1405               	bsf	5,0	;volatile
   590                           
   591                           ;main_brazo.c: 163:     TRISAbits.TRISA1 = 1;
   592  023A  1485               	bsf	5,1	;volatile
   593                           
   594                           ;main_brazo.c: 164:     TRISAbits.TRISA2 = 1;
   595  023B  1505               	bsf	5,2	;volatile
   596                           
   597                           ;main_brazo.c: 166:     TRISBbits.TRISB0 = 1;
   598  023C  1406               	bsf	6,0	;volatile
   599                           
   600                           ;main_brazo.c: 168:     TRISCbits.TRISC1 = 0;
   601  023D  1087               	bcf	7,1	;volatile
   602                           
   603                           ;main_brazo.c: 169:     TRISCbits.TRISC2 = 0;
   604  023E  1107               	bcf	7,2	;volatile
   605                           
   606                           ;main_brazo.c: 171:     TRISDbits.TRISD0 = 0;
   607  023F  1008               	bcf	8,0	;volatile
   608                           
   609                           ;main_brazo.c: 172:     TRISDbits.TRISD1 = 0;
   610  0240  1088               	bcf	8,1	;volatile
   611                           
   612                           ;main_brazo.c: 173:     TRISDbits.TRISD2 = 0;
   613  0241  1108               	bcf	8,2	;volatile
   614  0242                     l1412:
   615                           
   616                           ;main_brazo.c: 175:     TRISE = 0;
   617  0242  0189               	clrf	9	;volatile
   618                           
   619                           ;main_brazo.c: 177:     PORTA = 0;
   620  0243  1283               	bcf	3,5	;RP0=0, select bank0
   621  0244  1303               	bcf	3,6	;RP1=0, select bank0
   622  0245  0185               	clrf	5	;volatile
   623                           
   624                           ;main_brazo.c: 178:     PORTB = 0;
   625  0246  0186               	clrf	6	;volatile
   626                           
   627                           ;main_brazo.c: 179:     PORTC = 0;
   628  0247  0187               	clrf	7	;volatile
   629                           
   630                           ;main_brazo.c: 180:     PORTD = 0;
   631  0248  0188               	clrf	8	;volatile
   632                           
   633                           ;main_brazo.c: 181:     PORTE = 0;
   634  0249  0189               	clrf	9	;volatile
   635  024A                     l1414:
   636                           
   637                           ;main_brazo.c: 184:     OSCCONbits.IRCF2 = 1;
   638  024A  1683               	bsf	3,5	;RP0=1, select bank1
   639  024B  1303               	bcf	3,6	;RP1=0, select bank1
   640  024C  170F               	bsf	15,6	;volatile
   641  024D                     l1416:
   642                           
   643                           ;main_brazo.c: 185:     OSCCONbits.IRCF1 = 1;
   644  024D  168F               	bsf	15,5	;volatile
   645  024E                     l1418:
   646                           
   647                           ;main_brazo.c: 186:     OSCCONbits.IRCF0 = 1;
   648  024E  160F               	bsf	15,4	;volatile
   649  024F                     l1420:
   650                           
   651                           ;main_brazo.c: 187:     OSCCONbits.SCS=1;
   652  024F  140F               	bsf	15,0	;volatile
   653  0250                     l1422:
   654                           
   655                           ;main_brazo.c: 190:     ADCON1bits.ADFM = 0 ;
   656  0250  139F               	bcf	31,7	;volatile
   657  0251                     l1424:
   658                           
   659                           ;main_brazo.c: 191:     ADCON1bits.VCFG0 = 0 ;
   660  0251  121F               	bcf	31,4	;volatile
   661  0252                     l1426:
   662                           
   663                           ;main_brazo.c: 192:     ADCON1bits.VCFG1 = 0 ;
   664  0252  129F               	bcf	31,5	;volatile
   665  0253                     l1428:
   666                           
   667                           ;main_brazo.c: 194:     ADCON0bits.ADCS = 0b10 ;
   668  0253  1283               	bcf	3,5	;RP0=0, select bank0
   669  0254  1303               	bcf	3,6	;RP1=0, select bank0
   670  0255  081F               	movf	31,w	;volatile
   671  0256  393F               	andlw	-193
   672  0257  3880               	iorlw	128
   673  0258  009F               	movwf	31	;volatile
   674  0259                     l1430:
   675                           
   676                           ;main_brazo.c: 195:     ADCON0bits.CHS = 0;
   677  0259  30C3               	movlw	-61
   678  025A  059F               	andwf	31,f	;volatile
   679  025B                     l1432:
   680                           
   681                           ;main_brazo.c: 196:     _delay((unsigned long)((50)*(8000000/4000000.0)));
   682  025B  3020               	movlw	32
   683  025C  1283               	bcf	3,5	;RP0=0, select bank0
   684  025D  1303               	bcf	3,6	;RP1=0, select bank0
   685  025E  00A9               	movwf	??_setup
   686  025F                     u677:
   687  025F  0BA9               	decfsz	??_setup,f
   688  0260  2A5F               	goto	u677
   689  0261  0000               	nop
   690  0262                     l1434:
   691                           
   692                           ;main_brazo.c: 197:     ADCON0bits.ADON = 1 ;
   693  0262  1283               	bcf	3,5	;RP0=0, select bank0
   694  0263  1303               	bcf	3,6	;RP1=0, select bank0
   695  0264  141F               	bsf	31,0	;volatile
   696  0265                     l1436:
   697                           
   698                           ;main_brazo.c: 200:     PR2 = 249;
   699  0265  30F9               	movlw	249
   700  0266  1683               	bsf	3,5	;RP0=1, select bank1
   701  0267  1303               	bcf	3,6	;RP1=0, select bank1
   702  0268  0092               	movwf	18	;volatile
   703  0269                     l1438:
   704                           
   705                           ;main_brazo.c: 202:     TRISCbits.TRISC2=1;
   706  0269  1507               	bsf	7,2	;volatile
   707  026A                     l1440:
   708                           
   709                           ;main_brazo.c: 203:     CCP1CONbits.P1M = 0;
   710  026A  303F               	movlw	-193
   711  026B  1283               	bcf	3,5	;RP0=0, select bank0
   712  026C  1303               	bcf	3,6	;RP1=0, select bank0
   713  026D  0597               	andwf	23,f	;volatile
   714  026E                     l1442:
   715                           
   716                           ;main_brazo.c: 204:     CCP1CONbits.CCP1M = 0b1100;
   717  026E  0817               	movf	23,w	;volatile
   718  026F  39F0               	andlw	-16
   719  0270  380C               	iorlw	12
   720  0271  0097               	movwf	23	;volatile
   721  0272                     l1444:
   722                           
   723                           ;main_brazo.c: 205:     CCPR1L = 0x0f ;
   724  0272  300F               	movlw	15
   725  0273  0095               	movwf	21	;volatile
   726  0274                     l1446:
   727                           
   728                           ;main_brazo.c: 206:     CCP1CONbits.DC1B = 0;
   729  0274  30CF               	movlw	-49
   730  0275  0597               	andwf	23,f	;volatile
   731  0276                     l1448:
   732                           
   733                           ;main_brazo.c: 208:     TRISCbits.TRISC1 = 1;
   734  0276  1683               	bsf	3,5	;RP0=1, select bank1
   735  0277  1303               	bcf	3,6	;RP1=0, select bank1
   736  0278  1487               	bsf	7,1	;volatile
   737  0279                     l1450:
   738                           
   739                           ;main_brazo.c: 209:     CCP2CONbits.CCP2M = 0b1100;
   740  0279  1283               	bcf	3,5	;RP0=0, select bank0
   741  027A  1303               	bcf	3,6	;RP1=0, select bank0
   742  027B  081D               	movf	29,w	;volatile
   743  027C  39F0               	andlw	-16
   744  027D  380C               	iorlw	12
   745  027E  009D               	movwf	29	;volatile
   746  027F                     l1452:
   747                           
   748                           ;main_brazo.c: 210:     CCPR2L = 0x0f;
   749  027F  300F               	movlw	15
   750  0280  009B               	movwf	27	;volatile
   751  0281                     l1454:
   752                           
   753                           ;main_brazo.c: 211:     CCP2CONbits.DC2B1 = 0;
   754  0281  129D               	bcf	29,5	;volatile
   755  0282                     l1456:
   756                           
   757                           ;main_brazo.c: 214:     PIR1bits.TMR2IF = 0;
   758  0282  108C               	bcf	12,1	;volatile
   759  0283                     l1458:
   760                           
   761                           ;main_brazo.c: 215:     T2CONbits.T2CKPS = 0b11;
   762  0283  3003               	movlw	3
   763  0284  0492               	iorwf	18,f	;volatile
   764  0285                     l1460:
   765                           
   766                           ;main_brazo.c: 216:     T2CONbits.TMR2ON = 1;
   767  0285  1512               	bsf	18,2	;volatile
   768  0286                     l1462:
   769                           
   770                           ;main_brazo.c: 219:     PIR1bits.TMR2IF=0;
   771  0286  108C               	bcf	12,1	;volatile
   772  0287                     l1464:
   773                           
   774                           ;main_brazo.c: 220:     TRISCbits.TRISC2 = 0;
   775  0287  1683               	bsf	3,5	;RP0=1, select bank1
   776  0288  1303               	bcf	3,6	;RP1=0, select bank1
   777  0289  1107               	bcf	7,2	;volatile
   778  028A                     l1466:
   779                           
   780                           ;main_brazo.c: 221:     TRISCbits.TRISC1= 0;
   781  028A  1087               	bcf	7,1	;volatile
   782  028B                     l1468:
   783                           
   784                           ;main_brazo.c: 225:     TXSTAbits.SYNC = 0;
   785  028B  1218               	bcf	24,4	;volatile
   786  028C                     l1470:
   787                           
   788                           ;main_brazo.c: 226:     TXSTAbits.BRGH = 1;
   789  028C  1518               	bsf	24,2	;volatile
   790  028D                     l1472:
   791                           
   792                           ;main_brazo.c: 227:     BAUDCTLbits.BRG16 = 1;
   793  028D  1683               	bsf	3,5	;RP0=1, select bank3
   794  028E  1703               	bsf	3,6	;RP1=1, select bank3
   795  028F  1587               	bsf	7,3	;volatile
   796  0290                     l1474:
   797                           
   798                           ;main_brazo.c: 229:     SPBRG = 207;
   799  0290  30CF               	movlw	207
   800  0291  1683               	bsf	3,5	;RP0=1, select bank1
   801  0292  1303               	bcf	3,6	;RP1=0, select bank1
   802  0293  0099               	movwf	25	;volatile
   803  0294                     l1476:
   804                           
   805                           ;main_brazo.c: 230:     SPBRGH = 0;
   806  0294  019A               	clrf	26	;volatile
   807  0295                     l1478:
   808                           
   809                           ;main_brazo.c: 232:     RCSTAbits.SPEN = 1;
   810  0295  1283               	bcf	3,5	;RP0=0, select bank0
   811  0296  1303               	bcf	3,6	;RP1=0, select bank0
   812  0297  1798               	bsf	24,7	;volatile
   813  0298                     l1480:
   814                           
   815                           ;main_brazo.c: 233:     RCSTAbits.RX9 = 0;
   816  0298  1318               	bcf	24,6	;volatile
   817  0299                     l1482:
   818                           
   819                           ;main_brazo.c: 235:     RCSTAbits.CREN = 1;
   820  0299  1618               	bsf	24,4	;volatile
   821  029A                     l1484:
   822                           
   823                           ;main_brazo.c: 236:     TXSTAbits.TXEN = 1;
   824  029A  1683               	bsf	3,5	;RP0=1, select bank1
   825  029B  1303               	bcf	3,6	;RP1=0, select bank1
   826  029C  1698               	bsf	24,5	;volatile
   827  029D                     l1486:
   828                           
   829                           ;main_brazo.c: 240:     INTCONbits.GIE = 1;
   830  029D  178B               	bsf	11,7	;volatile
   831  029E                     l1488:
   832                           
   833                           ;main_brazo.c: 241:     INTCONbits.PEIE = 1;
   834  029E  170B               	bsf	11,6	;volatile
   835  029F                     l1490:
   836                           
   837                           ;main_brazo.c: 243:     PIE1bits.ADIE = 1;
   838  029F  170C               	bsf	12,6	;volatile
   839  02A0                     l1492:
   840                           
   841                           ;main_brazo.c: 244:     PIR1bits.ADIF = 0;
   842  02A0  1283               	bcf	3,5	;RP0=0, select bank0
   843  02A1  1303               	bcf	3,6	;RP1=0, select bank0
   844  02A2  130C               	bcf	12,6	;volatile
   845  02A3                     l1494:
   846                           
   847                           ;main_brazo.c: 247:     _delay((unsigned long)((100)*(8000000/4000000.0)));
   848  02A3  3041               	movlw	65
   849  02A4  1283               	bcf	3,5	;RP0=0, select bank0
   850  02A5  1303               	bcf	3,6	;RP1=0, select bank0
   851  02A6  00A9               	movwf	??_setup
   852  02A7                     u687:
   853  02A7  0BA9               	decfsz	??_setup,f
   854  02A8  2AA7               	goto	u687
   855  02A9  2AAA               	nop2
   856  02AA                     l1496:
   857                           
   858                           ;main_brazo.c: 248:     ADCON0bits.GO=1;
   859  02AA  1283               	bcf	3,5	;RP0=0, select bank0
   860  02AB  1303               	bcf	3,6	;RP1=0, select bank0
   861  02AC  149F               	bsf	31,1	;volatile
   862  02AD                     l128:
   863  02AD  0008               	return
   864  02AE                     __end_of_setup:
   865                           
   866                           	psect	text2
   867  002A                     __ptext2:	
   868 ;; *************** function _servos_loop *****************
   869 ;; Defined at:
   870 ;;		line 338 in file "main_brazo.c"
   871 ;; Parameters:    Size  Location     Type
   872 ;;		None
   873 ;; Auto vars:     Size  Location     Type
   874 ;;		None
   875 ;; Return value:  Size  Location     Type
   876 ;;                  1    wreg      void 
   877 ;; Registers used:
   878 ;;		wreg, status,2, status,0, btemp+1
   879 ;; Tracked objects:
   880 ;;		On entry : 0/0
   881 ;;		On exit  : 0/0
   882 ;;		Unchanged: 0/0
   883 ;; Data sizes:     COMMON   BANK0   BANK1   BANK3   BANK2
   884 ;;      Params:         0       0       0       0       0
   885 ;;      Locals:         0       0       0       0       0
   886 ;;      Temps:          0       2       0       0       0
   887 ;;      Totals:         0       2       0       0       0
   888 ;;Total ram usage:        2 bytes
   889 ;; Hardware stack levels used:    1
   890 ;; Hardware stack levels required when called:    1
   891 ;; This function calls:
   892 ;;		Nothing
   893 ;; This function is called by:
   894 ;;		_main
   895 ;; This function uses a non-reentrant model
   896 ;;
   897                           
   898                           
   899                           ;psect for function _servos_loop
   900  002A                     _servos_loop:
   901  002A                     l1570:	
   902                           ;incstack = 0
   903                           ; Regs used in _servos_loop: [wreg+status,2+status,0+btemp+1]
   904                           
   905                           
   906                           ;main_brazo.c: 340:     for(x=0;x<=7;x++)
   907  002A  01F4               	clrf	_x
   908  002B  01F5               	clrf	_x+1
   909  002C                     l1576:
   910                           
   911                           ;main_brazo.c: 341:     {;main_brazo.c: 342:         if (x == 1)
   912  002C  0374               	decf	_x,w
   913  002D  0475               	iorwf	_x+1,w
   914  002E  1D03               	btfss	3,2
   915  002F  2831               	goto	u531
   916  0030  2832               	goto	u530
   917  0031                     u531:
   918  0031  2864               	goto	l1590
   919  0032                     u530:
   920  0032                     l1578:
   921                           
   922                           ;main_brazo.c: 343:         {;main_brazo.c: 344:             for (servo1_1 = 0; servo1_1
      +                           <= 15; servo1_1++)
   923  0032  01F2               	clrf	_servo1_1
   924  0033  01F3               	clrf	_servo1_1+1
   925  0034                     l1580:
   926  0034  0873               	movf	_servo1_1+1,w
   927  0035  3A80               	xorlw	128
   928  0036  00FF               	movwf	btemp+1
   929  0037  3080               	movlw	128
   930  0038  027F               	subwf	btemp+1,w
   931  0039  1D03               	skipz
   932  003A  283D               	goto	u545
   933  003B  3010               	movlw	16
   934  003C  0272               	subwf	_servo1_1,w
   935  003D                     u545:
   936  003D  1C03               	skipc
   937  003E  2840               	goto	u541
   938  003F  2841               	goto	u540
   939  0040                     u541:
   940  0040  2842               	goto	l170
   941  0041                     u540:
   942  0041  2864               	goto	l1590
   943  0042                     l170:
   944                           
   945                           ;main_brazo.c: 345:             {;main_brazo.c: 346:                 PORTDbits.RD0 = 1;
   946  0042  1283               	bcf	3,5	;RP0=0, select bank0
   947  0043  1303               	bcf	3,6	;RP1=0, select bank0
   948  0044  1408               	bsf	8,0	;volatile
   949  0045                     l1584:
   950                           
   951                           ;main_brazo.c: 347:                 _delay((unsigned long)((1)*(8000000/4000.0)));
   952  0045  3003               	movlw	3
   953  0046  1283               	bcf	3,5	;RP0=0, select bank0
   954  0047  1303               	bcf	3,6	;RP1=0, select bank0
   955  0048  00AA               	movwf	??_servos_loop+1
   956  0049  3097               	movlw	151
   957  004A  00A9               	movwf	??_servos_loop
   958  004B                     u697:
   959  004B  0BA9               	decfsz	??_servos_loop,f
   960  004C  284B               	goto	u697
   961  004D  0BAA               	decfsz	??_servos_loop+1,f
   962  004E  284B               	goto	u697
   963  004F                     l1586:
   964                           
   965                           ;main_brazo.c: 348:                 PORTDbits.RD0 = 0;
   966  004F  1283               	bcf	3,5	;RP0=0, select bank0
   967  0050  1303               	bcf	3,6	;RP1=0, select bank0
   968  0051  1008               	bcf	8,0	;volatile
   969                           
   970                           ;main_brazo.c: 349:                 _delay((unsigned long)((19)*(8000000/4000.0)));
   971  0052  3032               	movlw	50
   972  0053  1283               	bcf	3,5	;RP0=0, select bank0
   973  0054  1303               	bcf	3,6	;RP1=0, select bank0
   974  0055  00AA               	movwf	??_servos_loop+1
   975  0056  3057               	movlw	87
   976  0057  00A9               	movwf	??_servos_loop
   977  0058                     u707:
   978  0058  0BA9               	decfsz	??_servos_loop,f
   979  0059  2858               	goto	u707
   980  005A  0BAA               	decfsz	??_servos_loop+1,f
   981  005B  2858               	goto	u707
   982  005C  285D               	nop2
   983                           
   984                           ;main_brazo.c: 350:             }
   985  005D  3001               	movlw	1
   986  005E  07F2               	addwf	_servo1_1,f
   987  005F  1803               	skipnc
   988  0060  0AF3               	incf	_servo1_1+1,f
   989  0061  3000               	movlw	0
   990  0062  07F3               	addwf	_servo1_1+1,f
   991  0063  2834               	goto	l1580
   992  0064                     l1590:
   993                           
   994                           ;main_brazo.c: 353:         if (x == 2)
   995  0064  3002               	movlw	2
   996  0065  0674               	xorwf	_x,w
   997  0066  0475               	iorwf	_x+1,w
   998  0067  1D03               	btfss	3,2
   999  0068  286A               	goto	u551
  1000  0069  286B               	goto	u550
  1001  006A                     u551:
  1002  006A  289D               	goto	l1604
  1003  006B                     u550:
  1004  006B                     l1592:
  1005                           
  1006                           ;main_brazo.c: 354:         {;main_brazo.c: 355:             for (servo1_2 = 0; servo1_2
      +                           <= 15; servo1_2++)
  1007  006B  01F0               	clrf	_servo1_2
  1008  006C  01F1               	clrf	_servo1_2+1
  1009  006D                     l1594:
  1010  006D  0871               	movf	_servo1_2+1,w
  1011  006E  3A80               	xorlw	128
  1012  006F  00FF               	movwf	btemp+1
  1013  0070  3080               	movlw	128
  1014  0071  027F               	subwf	btemp+1,w
  1015  0072  1D03               	skipz
  1016  0073  2876               	goto	u565
  1017  0074  3010               	movlw	16
  1018  0075  0270               	subwf	_servo1_2,w
  1019  0076                     u565:
  1020  0076  1C03               	skipc
  1021  0077  2879               	goto	u561
  1022  0078  287A               	goto	u560
  1023  0079                     u561:
  1024  0079  287B               	goto	l173
  1025  007A                     u560:
  1026  007A  289D               	goto	l1604
  1027  007B                     l173:
  1028                           
  1029                           ;main_brazo.c: 356:             {;main_brazo.c: 357:                 PORTDbits.RD0 = 1;
  1030  007B  1283               	bcf	3,5	;RP0=0, select bank0
  1031  007C  1303               	bcf	3,6	;RP1=0, select bank0
  1032  007D  1408               	bsf	8,0	;volatile
  1033  007E                     l1598:
  1034                           
  1035                           ;main_brazo.c: 358:                 _delay((unsigned long)((1.5)*(8000000/4000.0)));
  1036  007E  3004               	movlw	4
  1037  007F  1283               	bcf	3,5	;RP0=0, select bank0
  1038  0080  1303               	bcf	3,6	;RP1=0, select bank0
  1039  0081  00AA               	movwf	??_servos_loop+1
  1040  0082  30E3               	movlw	227
  1041  0083  00A9               	movwf	??_servos_loop
  1042  0084                     u717:
  1043  0084  0BA9               	decfsz	??_servos_loop,f
  1044  0085  2884               	goto	u717
  1045  0086  0BAA               	decfsz	??_servos_loop+1,f
  1046  0087  2884               	goto	u717
  1047  0088  2889               	nop2
  1048  0089                     l1600:
  1049                           
  1050                           ;main_brazo.c: 359:                 PORTDbits.RD0 = 0;
  1051  0089  1283               	bcf	3,5	;RP0=0, select bank0
  1052  008A  1303               	bcf	3,6	;RP1=0, select bank0
  1053  008B  1008               	bcf	8,0	;volatile
  1054                           
  1055                           ;main_brazo.c: 360:                 _delay((unsigned long)((18.5)*(8000000/4000.0)));
  1056  008C  3031               	movlw	49
  1057  008D  1283               	bcf	3,5	;RP0=0, select bank0
  1058  008E  1303               	bcf	3,6	;RP1=0, select bank0
  1059  008F  00AA               	movwf	??_servos_loop+1
  1060  0090  300B               	movlw	11
  1061  0091  00A9               	movwf	??_servos_loop
  1062  0092                     u727:
  1063  0092  0BA9               	decfsz	??_servos_loop,f
  1064  0093  2892               	goto	u727
  1065  0094  0BAA               	decfsz	??_servos_loop+1,f
  1066  0095  2892               	goto	u727
  1067                           
  1068                           ;main_brazo.c: 361:             }
  1069  0096  3001               	movlw	1
  1070  0097  07F0               	addwf	_servo1_2,f
  1071  0098  1803               	skipnc
  1072  0099  0AF1               	incf	_servo1_2+1,f
  1073  009A  3000               	movlw	0
  1074  009B  07F1               	addwf	_servo1_2+1,f
  1075  009C  286D               	goto	l1594
  1076  009D                     l1604:
  1077                           
  1078                           ;main_brazo.c: 364:         if (x ==3)
  1079  009D  3003               	movlw	3
  1080  009E  0674               	xorwf	_x,w
  1081  009F  0475               	iorwf	_x+1,w
  1082  00A0  1D03               	btfss	3,2
  1083  00A1  28A3               	goto	u571
  1084  00A2  28A4               	goto	u570
  1085  00A3                     u571:
  1086  00A3  28DA               	goto	l1618
  1087  00A4                     u570:
  1088  00A4                     l1606:
  1089                           
  1090                           ;main_brazo.c: 365:         {;main_brazo.c: 366:             for (servo2_1 = 0; servo2_1
      +                           <= 20; servo2_1++)
  1091  00A4  1283               	bcf	3,5	;RP0=0, select bank0
  1092  00A5  1303               	bcf	3,6	;RP1=0, select bank0
  1093  00A6  01A6               	clrf	_servo2_1
  1094  00A7  01A7               	clrf	_servo2_1+1
  1095  00A8                     l1608:
  1096  00A8  0827               	movf	_servo2_1+1,w
  1097  00A9  3A80               	xorlw	128
  1098  00AA  00FF               	movwf	btemp+1
  1099  00AB  3080               	movlw	128
  1100  00AC  027F               	subwf	btemp+1,w
  1101  00AD  1D03               	skipz
  1102  00AE  28B1               	goto	u585
  1103  00AF  3015               	movlw	21
  1104  00B0  0226               	subwf	_servo2_1,w
  1105  00B1                     u585:
  1106  00B1  1C03               	skipc
  1107  00B2  28B4               	goto	u581
  1108  00B3  28B5               	goto	u580
  1109  00B4                     u581:
  1110  00B4  28B6               	goto	l176
  1111  00B5                     u580:
  1112  00B5  28DA               	goto	l1618
  1113  00B6                     l176:
  1114                           
  1115                           ;main_brazo.c: 367:             {;main_brazo.c: 368:                 PORTDbits.RD1 = 1;
  1116  00B6  1283               	bcf	3,5	;RP0=0, select bank0
  1117  00B7  1303               	bcf	3,6	;RP1=0, select bank0
  1118  00B8  1488               	bsf	8,1	;volatile
  1119  00B9                     l1612:
  1120                           
  1121                           ;main_brazo.c: 369:                 _delay((unsigned long)((1)*(8000000/4000.0)));
  1122  00B9  3003               	movlw	3
  1123  00BA  1283               	bcf	3,5	;RP0=0, select bank0
  1124  00BB  1303               	bcf	3,6	;RP1=0, select bank0
  1125  00BC  00AA               	movwf	??_servos_loop+1
  1126  00BD  3097               	movlw	151
  1127  00BE  00A9               	movwf	??_servos_loop
  1128  00BF                     u737:
  1129  00BF  0BA9               	decfsz	??_servos_loop,f
  1130  00C0  28BF               	goto	u737
  1131  00C1  0BAA               	decfsz	??_servos_loop+1,f
  1132  00C2  28BF               	goto	u737
  1133  00C3                     l1614:
  1134                           
  1135                           ;main_brazo.c: 370:                 PORTDbits.RD1 = 0;
  1136  00C3  1283               	bcf	3,5	;RP0=0, select bank0
  1137  00C4  1303               	bcf	3,6	;RP1=0, select bank0
  1138  00C5  1088               	bcf	8,1	;volatile
  1139                           
  1140                           ;main_brazo.c: 371:                 _delay((unsigned long)((19)*(8000000/4000.0)));
  1141  00C6  3032               	movlw	50
  1142  00C7  1283               	bcf	3,5	;RP0=0, select bank0
  1143  00C8  1303               	bcf	3,6	;RP1=0, select bank0
  1144  00C9  00AA               	movwf	??_servos_loop+1
  1145  00CA  3057               	movlw	87
  1146  00CB  00A9               	movwf	??_servos_loop
  1147  00CC                     u747:
  1148  00CC  0BA9               	decfsz	??_servos_loop,f
  1149  00CD  28CC               	goto	u747
  1150  00CE  0BAA               	decfsz	??_servos_loop+1,f
  1151  00CF  28CC               	goto	u747
  1152  00D0  28D1               	nop2
  1153                           
  1154                           ;main_brazo.c: 372:             }
  1155  00D1  3001               	movlw	1
  1156  00D2  1283               	bcf	3,5	;RP0=0, select bank0
  1157  00D3  1303               	bcf	3,6	;RP1=0, select bank0
  1158  00D4  07A6               	addwf	_servo2_1,f
  1159  00D5  1803               	skipnc
  1160  00D6  0AA7               	incf	_servo2_1+1,f
  1161  00D7  3000               	movlw	0
  1162  00D8  07A7               	addwf	_servo2_1+1,f
  1163  00D9  28A8               	goto	l1608
  1164  00DA                     l1618:
  1165                           
  1166                           ;main_brazo.c: 375:         if (x==4)
  1167  00DA  3004               	movlw	4
  1168  00DB  0674               	xorwf	_x,w
  1169  00DC  0475               	iorwf	_x+1,w
  1170  00DD  1D03               	btfss	3,2
  1171  00DE  28E0               	goto	u591
  1172  00DF  28E1               	goto	u590
  1173  00E0                     u591:
  1174  00E0  2917               	goto	l1632
  1175  00E1                     u590:
  1176  00E1                     l1620:
  1177                           
  1178                           ;main_brazo.c: 376:         {;main_brazo.c: 377:             for (servo2_2 = 0; servo2_2
      +                           <= 20; servo2_2++)
  1179  00E1  1283               	bcf	3,5	;RP0=0, select bank0
  1180  00E2  1303               	bcf	3,6	;RP1=0, select bank0
  1181  00E3  01A4               	clrf	_servo2_2
  1182  00E4  01A5               	clrf	_servo2_2+1
  1183  00E5                     l1622:
  1184  00E5  0825               	movf	_servo2_2+1,w
  1185  00E6  3A80               	xorlw	128
  1186  00E7  00FF               	movwf	btemp+1
  1187  00E8  3080               	movlw	128
  1188  00E9  027F               	subwf	btemp+1,w
  1189  00EA  1D03               	skipz
  1190  00EB  28EE               	goto	u605
  1191  00EC  3015               	movlw	21
  1192  00ED  0224               	subwf	_servo2_2,w
  1193  00EE                     u605:
  1194  00EE  1C03               	skipc
  1195  00EF  28F1               	goto	u601
  1196  00F0  28F2               	goto	u600
  1197  00F1                     u601:
  1198  00F1  28F3               	goto	l179
  1199  00F2                     u600:
  1200  00F2  2917               	goto	l1632
  1201  00F3                     l179:
  1202                           
  1203                           ;main_brazo.c: 378:             {;main_brazo.c: 379:                 PORTDbits.RD1 = 1;
  1204  00F3  1283               	bcf	3,5	;RP0=0, select bank0
  1205  00F4  1303               	bcf	3,6	;RP1=0, select bank0
  1206  00F5  1488               	bsf	8,1	;volatile
  1207  00F6                     l1626:
  1208                           
  1209                           ;main_brazo.c: 380:                 _delay((unsigned long)((1.5)*(8000000/4000.0)));
  1210  00F6  3004               	movlw	4
  1211  00F7  1283               	bcf	3,5	;RP0=0, select bank0
  1212  00F8  1303               	bcf	3,6	;RP1=0, select bank0
  1213  00F9  00AA               	movwf	??_servos_loop+1
  1214  00FA  30E3               	movlw	227
  1215  00FB  00A9               	movwf	??_servos_loop
  1216  00FC                     u757:
  1217  00FC  0BA9               	decfsz	??_servos_loop,f
  1218  00FD  28FC               	goto	u757
  1219  00FE  0BAA               	decfsz	??_servos_loop+1,f
  1220  00FF  28FC               	goto	u757
  1221  0100  2901               	nop2
  1222  0101                     l1628:
  1223                           
  1224                           ;main_brazo.c: 381:                 PORTDbits.RD1 = 0;
  1225  0101  1283               	bcf	3,5	;RP0=0, select bank0
  1226  0102  1303               	bcf	3,6	;RP1=0, select bank0
  1227  0103  1088               	bcf	8,1	;volatile
  1228                           
  1229                           ;main_brazo.c: 382:                 _delay((unsigned long)((18.5)*(8000000/4000.0)));
  1230  0104  3031               	movlw	49
  1231  0105  1283               	bcf	3,5	;RP0=0, select bank0
  1232  0106  1303               	bcf	3,6	;RP1=0, select bank0
  1233  0107  00AA               	movwf	??_servos_loop+1
  1234  0108  300B               	movlw	11
  1235  0109  00A9               	movwf	??_servos_loop
  1236  010A                     u767:
  1237  010A  0BA9               	decfsz	??_servos_loop,f
  1238  010B  290A               	goto	u767
  1239  010C  0BAA               	decfsz	??_servos_loop+1,f
  1240  010D  290A               	goto	u767
  1241                           
  1242                           ;main_brazo.c: 383:             }
  1243  010E  3001               	movlw	1
  1244  010F  1283               	bcf	3,5	;RP0=0, select bank0
  1245  0110  1303               	bcf	3,6	;RP1=0, select bank0
  1246  0111  07A4               	addwf	_servo2_2,f
  1247  0112  1803               	skipnc
  1248  0113  0AA5               	incf	_servo2_2+1,f
  1249  0114  3000               	movlw	0
  1250  0115  07A5               	addwf	_servo2_2+1,f
  1251  0116  28E5               	goto	l1622
  1252  0117                     l1632:
  1253                           
  1254                           ;main_brazo.c: 386:         if (x==5)
  1255  0117  3005               	movlw	5
  1256  0118  0674               	xorwf	_x,w
  1257  0119  0475               	iorwf	_x+1,w
  1258  011A  1D03               	btfss	3,2
  1259  011B  291D               	goto	u611
  1260  011C  291E               	goto	u610
  1261  011D                     u611:
  1262  011D  2954               	goto	l1646
  1263  011E                     u610:
  1264  011E                     l1634:
  1265                           
  1266                           ;main_brazo.c: 387:         {;main_brazo.c: 388:             for (servo3_1 = 0; servo3_1
      +                           <= 20; servo3_1++)
  1267  011E  1283               	bcf	3,5	;RP0=0, select bank0
  1268  011F  1303               	bcf	3,6	;RP1=0, select bank0
  1269  0120  01A2               	clrf	_servo3_1
  1270  0121  01A3               	clrf	_servo3_1+1
  1271  0122                     l1636:
  1272  0122  0823               	movf	_servo3_1+1,w
  1273  0123  3A80               	xorlw	128
  1274  0124  00FF               	movwf	btemp+1
  1275  0125  3080               	movlw	128
  1276  0126  027F               	subwf	btemp+1,w
  1277  0127  1D03               	skipz
  1278  0128  292B               	goto	u625
  1279  0129  3015               	movlw	21
  1280  012A  0222               	subwf	_servo3_1,w
  1281  012B                     u625:
  1282  012B  1C03               	skipc
  1283  012C  292E               	goto	u621
  1284  012D  292F               	goto	u620
  1285  012E                     u621:
  1286  012E  2930               	goto	l182
  1287  012F                     u620:
  1288  012F  2954               	goto	l1646
  1289  0130                     l182:
  1290                           
  1291                           ;main_brazo.c: 389:             {;main_brazo.c: 390:                 PORTDbits.RD2 = 1;
  1292  0130  1283               	bcf	3,5	;RP0=0, select bank0
  1293  0131  1303               	bcf	3,6	;RP1=0, select bank0
  1294  0132  1508               	bsf	8,2	;volatile
  1295  0133                     l1640:
  1296                           
  1297                           ;main_brazo.c: 391:                 _delay((unsigned long)((1)*(8000000/4000.0)));
  1298  0133  3003               	movlw	3
  1299  0134  1283               	bcf	3,5	;RP0=0, select bank0
  1300  0135  1303               	bcf	3,6	;RP1=0, select bank0
  1301  0136  00AA               	movwf	??_servos_loop+1
  1302  0137  3097               	movlw	151
  1303  0138  00A9               	movwf	??_servos_loop
  1304  0139                     u777:
  1305  0139  0BA9               	decfsz	??_servos_loop,f
  1306  013A  2939               	goto	u777
  1307  013B  0BAA               	decfsz	??_servos_loop+1,f
  1308  013C  2939               	goto	u777
  1309  013D                     l1642:
  1310                           
  1311                           ;main_brazo.c: 392:                 PORTDbits.RD2 = 0;
  1312  013D  1283               	bcf	3,5	;RP0=0, select bank0
  1313  013E  1303               	bcf	3,6	;RP1=0, select bank0
  1314  013F  1108               	bcf	8,2	;volatile
  1315                           
  1316                           ;main_brazo.c: 393:                 _delay((unsigned long)((19)*(8000000/4000.0)));
  1317  0140  3032               	movlw	50
  1318  0141  1283               	bcf	3,5	;RP0=0, select bank0
  1319  0142  1303               	bcf	3,6	;RP1=0, select bank0
  1320  0143  00AA               	movwf	??_servos_loop+1
  1321  0144  3057               	movlw	87
  1322  0145  00A9               	movwf	??_servos_loop
  1323  0146                     u787:
  1324  0146  0BA9               	decfsz	??_servos_loop,f
  1325  0147  2946               	goto	u787
  1326  0148  0BAA               	decfsz	??_servos_loop+1,f
  1327  0149  2946               	goto	u787
  1328  014A  294B               	nop2
  1329                           
  1330                           ;main_brazo.c: 394:             }
  1331  014B  3001               	movlw	1
  1332  014C  1283               	bcf	3,5	;RP0=0, select bank0
  1333  014D  1303               	bcf	3,6	;RP1=0, select bank0
  1334  014E  07A2               	addwf	_servo3_1,f
  1335  014F  1803               	skipnc
  1336  0150  0AA3               	incf	_servo3_1+1,f
  1337  0151  3000               	movlw	0
  1338  0152  07A3               	addwf	_servo3_1+1,f
  1339  0153  2922               	goto	l1636
  1340  0154                     l1646:
  1341                           
  1342                           ;main_brazo.c: 397:         if (x==6)
  1343  0154  3006               	movlw	6
  1344  0155  0674               	xorwf	_x,w
  1345  0156  0475               	iorwf	_x+1,w
  1346  0157  1D03               	btfss	3,2
  1347  0158  295A               	goto	u631
  1348  0159  295B               	goto	u630
  1349  015A                     u631:
  1350  015A  2991               	goto	l1660
  1351  015B                     u630:
  1352  015B                     l1648:
  1353                           
  1354                           ;main_brazo.c: 398:         {;main_brazo.c: 399:             for (servo3_2 = 0; servo3_2
      +                           <= 20; servo3_2++)
  1355  015B  1283               	bcf	3,5	;RP0=0, select bank0
  1356  015C  1303               	bcf	3,6	;RP1=0, select bank0
  1357  015D  01A0               	clrf	_servo3_2
  1358  015E  01A1               	clrf	_servo3_2+1
  1359  015F                     l1650:
  1360  015F  0821               	movf	_servo3_2+1,w
  1361  0160  3A80               	xorlw	128
  1362  0161  00FF               	movwf	btemp+1
  1363  0162  3080               	movlw	128
  1364  0163  027F               	subwf	btemp+1,w
  1365  0164  1D03               	skipz
  1366  0165  2968               	goto	u645
  1367  0166  3015               	movlw	21
  1368  0167  0220               	subwf	_servo3_2,w
  1369  0168                     u645:
  1370  0168  1C03               	skipc
  1371  0169  296B               	goto	u641
  1372  016A  296C               	goto	u640
  1373  016B                     u641:
  1374  016B  296D               	goto	l185
  1375  016C                     u640:
  1376  016C  2991               	goto	l1660
  1377  016D                     l185:
  1378                           
  1379                           ;main_brazo.c: 400:             {;main_brazo.c: 401:                 PORTDbits.RD2 = 1;
  1380  016D  1283               	bcf	3,5	;RP0=0, select bank0
  1381  016E  1303               	bcf	3,6	;RP1=0, select bank0
  1382  016F  1508               	bsf	8,2	;volatile
  1383  0170                     l1654:
  1384                           
  1385                           ;main_brazo.c: 402:                 _delay((unsigned long)((1.5)*(8000000/4000.0)));
  1386  0170  3004               	movlw	4
  1387  0171  1283               	bcf	3,5	;RP0=0, select bank0
  1388  0172  1303               	bcf	3,6	;RP1=0, select bank0
  1389  0173  00AA               	movwf	??_servos_loop+1
  1390  0174  30E3               	movlw	227
  1391  0175  00A9               	movwf	??_servos_loop
  1392  0176                     u797:
  1393  0176  0BA9               	decfsz	??_servos_loop,f
  1394  0177  2976               	goto	u797
  1395  0178  0BAA               	decfsz	??_servos_loop+1,f
  1396  0179  2976               	goto	u797
  1397  017A  297B               	nop2
  1398  017B                     l1656:
  1399                           
  1400                           ;main_brazo.c: 403:                 PORTDbits.RD2 = 0;
  1401  017B  1283               	bcf	3,5	;RP0=0, select bank0
  1402  017C  1303               	bcf	3,6	;RP1=0, select bank0
  1403  017D  1108               	bcf	8,2	;volatile
  1404                           
  1405                           ;main_brazo.c: 404:                 _delay((unsigned long)((18.5)*(8000000/4000.0)));
  1406  017E  3031               	movlw	49
  1407  017F  1283               	bcf	3,5	;RP0=0, select bank0
  1408  0180  1303               	bcf	3,6	;RP1=0, select bank0
  1409  0181  00AA               	movwf	??_servos_loop+1
  1410  0182  300B               	movlw	11
  1411  0183  00A9               	movwf	??_servos_loop
  1412  0184                     u807:
  1413  0184  0BA9               	decfsz	??_servos_loop,f
  1414  0185  2984               	goto	u807
  1415  0186  0BAA               	decfsz	??_servos_loop+1,f
  1416  0187  2984               	goto	u807
  1417                           
  1418                           ;main_brazo.c: 405:             }
  1419  0188  3001               	movlw	1
  1420  0189  1283               	bcf	3,5	;RP0=0, select bank0
  1421  018A  1303               	bcf	3,6	;RP1=0, select bank0
  1422  018B  07A0               	addwf	_servo3_2,f
  1423  018C  1803               	skipnc
  1424  018D  0AA1               	incf	_servo3_2+1,f
  1425  018E  3000               	movlw	0
  1426  018F  07A1               	addwf	_servo3_2+1,f
  1427  0190  295F               	goto	l1650
  1428  0191                     l1660:
  1429                           
  1430                           ;main_brazo.c: 407:         if (x==7)
  1431  0191  3007               	movlw	7
  1432  0192  0674               	xorwf	_x,w
  1433  0193  0475               	iorwf	_x+1,w
  1434  0194  1D03               	btfss	3,2
  1435  0195  2997               	goto	u651
  1436  0196  2998               	goto	u650
  1437  0197                     u651:
  1438  0197  299A               	goto	l1664
  1439  0198                     u650:
  1440  0198                     l1662:
  1441                           
  1442                           ;main_brazo.c: 408:         {;main_brazo.c: 409:             x=0;
  1443  0198  01F4               	clrf	_x
  1444  0199  01F5               	clrf	_x+1
  1445  019A                     l1664:
  1446                           
  1447                           ;main_brazo.c: 411:     }
  1448  019A  3001               	movlw	1
  1449  019B  07F4               	addwf	_x,f
  1450  019C  1803               	skipnc
  1451  019D  0AF5               	incf	_x+1,f
  1452  019E  3000               	movlw	0
  1453  019F  07F5               	addwf	_x+1,f
  1454  01A0                     l1666:
  1455  01A0  0875               	movf	_x+1,w
  1456  01A1  3A80               	xorlw	128
  1457  01A2  00FF               	movwf	btemp+1
  1458  01A3  3080               	movlw	128
  1459  01A4  027F               	subwf	btemp+1,w
  1460  01A5  1D03               	skipz
  1461  01A6  29A9               	goto	u665
  1462  01A7  3008               	movlw	8
  1463  01A8  0274               	subwf	_x,w
  1464  01A9                     u665:
  1465  01A9  1C03               	skipc
  1466  01AA  29AC               	goto	u661
  1467  01AB  29AD               	goto	u660
  1468  01AC                     u661:
  1469  01AC  282C               	goto	l1576
  1470  01AD                     u660:
  1471  01AD                     l188:
  1472  01AD  0008               	return
  1473  01AE                     __end_of_servos_loop:
  1474                           
  1475                           	psect	text3
  1476  0303                     __ptext3:	
  1477 ;; *************** function _servo3_19 *****************
  1478 ;; Defined at:
  1479 ;;		line 305 in file "main_brazo.c"
  1480 ;; Parameters:    Size  Location     Type
  1481 ;;		None
  1482 ;; Auto vars:     Size  Location     Type
  1483 ;;		None
  1484 ;; Return value:  Size  Location     Type
  1485 ;;                  1    wreg      void 
  1486 ;; Registers used:
  1487 ;;		wreg, status,2, btemp+1
  1488 ;; Tracked objects:
  1489 ;;		On entry : 0/0
  1490 ;;		On exit  : 0/0
  1491 ;;		Unchanged: 0/0
  1492 ;; Data sizes:     COMMON   BANK0   BANK1   BANK3   BANK2
  1493 ;;      Params:         0       0       0       0       0
  1494 ;;      Locals:         0       0       0       0       0
  1495 ;;      Temps:          0       2       0       0       0
  1496 ;;      Totals:         0       2       0       0       0
  1497 ;;Total ram usage:        2 bytes
  1498 ;; Hardware stack levels used:    1
  1499 ;; Hardware stack levels required when called:    1
  1500 ;; This function calls:
  1501 ;;		Nothing
  1502 ;; This function is called by:
  1503 ;;		_main
  1504 ;; This function uses a non-reentrant model
  1505 ;;
  1506                           
  1507                           
  1508                           ;psect for function _servo3_19
  1509  0303                     _servo3_19:
  1510  0303                     l1546:	
  1511                           ;incstack = 0
  1512                           ; Regs used in _servo3_19: [wreg+status,2+btemp+1]
  1513                           
  1514                           
  1515                           ;main_brazo.c: 307:     for (servo3_1 = 0; servo3_1 <= 15; servo3_1++)
  1516  0303  1283               	bcf	3,5	;RP0=0, select bank0
  1517  0304  1303               	bcf	3,6	;RP1=0, select bank0
  1518  0305  01A2               	clrf	_servo3_1
  1519  0306  01A3               	clrf	_servo3_1+1
  1520  0307                     l1548:
  1521  0307  0823               	movf	_servo3_1+1,w
  1522  0308  3A80               	xorlw	128
  1523  0309  00FF               	movwf	btemp+1
  1524  030A  3080               	movlw	128
  1525  030B  027F               	subwf	btemp+1,w
  1526  030C  1D03               	skipz
  1527  030D  2B10               	goto	u515
  1528  030E  3010               	movlw	16
  1529  030F  0222               	subwf	_servo3_1,w
  1530  0310                     u515:
  1531  0310  1C03               	skipc
  1532  0311  2B13               	goto	u511
  1533  0312  2B14               	goto	u510
  1534  0313                     u511:
  1535  0313  2B15               	goto	l151
  1536  0314                     u510:
  1537  0314  2B39               	goto	l153
  1538  0315                     l151:
  1539                           
  1540                           ;main_brazo.c: 308:         {;main_brazo.c: 309:             PORTDbits.RD2 = 1;
  1541  0315  1283               	bcf	3,5	;RP0=0, select bank0
  1542  0316  1303               	bcf	3,6	;RP1=0, select bank0
  1543  0317  1508               	bsf	8,2	;volatile
  1544  0318                     l1552:
  1545                           
  1546                           ;main_brazo.c: 310:             _delay((unsigned long)((1)*(8000000/4000.0)));
  1547  0318  3003               	movlw	3
  1548  0319  1283               	bcf	3,5	;RP0=0, select bank0
  1549  031A  1303               	bcf	3,6	;RP1=0, select bank0
  1550  031B  00AA               	movwf	??_servo3_19+1
  1551  031C  3097               	movlw	151
  1552  031D  00A9               	movwf	??_servo3_19
  1553  031E                     u817:
  1554  031E  0BA9               	decfsz	??_servo3_19,f
  1555  031F  2B1E               	goto	u817
  1556  0320  0BAA               	decfsz	??_servo3_19+1,f
  1557  0321  2B1E               	goto	u817
  1558  0322                     l1554:
  1559                           
  1560                           ;main_brazo.c: 311:             PORTDbits.RD2 = 0;
  1561  0322  1283               	bcf	3,5	;RP0=0, select bank0
  1562  0323  1303               	bcf	3,6	;RP1=0, select bank0
  1563  0324  1108               	bcf	8,2	;volatile
  1564                           
  1565                           ;main_brazo.c: 312:             _delay((unsigned long)((19)*(8000000/4000.0)));
  1566  0325  3032               	movlw	50
  1567  0326  1283               	bcf	3,5	;RP0=0, select bank0
  1568  0327  1303               	bcf	3,6	;RP1=0, select bank0
  1569  0328  00AA               	movwf	??_servo3_19+1
  1570  0329  3057               	movlw	87
  1571  032A  00A9               	movwf	??_servo3_19
  1572  032B                     u827:
  1573  032B  0BA9               	decfsz	??_servo3_19,f
  1574  032C  2B2B               	goto	u827
  1575  032D  0BAA               	decfsz	??_servo3_19+1,f
  1576  032E  2B2B               	goto	u827
  1577  032F  2B30               	nop2
  1578                           
  1579                           ;main_brazo.c: 313:         }
  1580  0330  3001               	movlw	1
  1581  0331  1283               	bcf	3,5	;RP0=0, select bank0
  1582  0332  1303               	bcf	3,6	;RP1=0, select bank0
  1583  0333  07A2               	addwf	_servo3_1,f
  1584  0334  1803               	skipnc
  1585  0335  0AA3               	incf	_servo3_1+1,f
  1586  0336  3000               	movlw	0
  1587  0337  07A3               	addwf	_servo3_1+1,f
  1588  0338  2B07               	goto	l1548
  1589  0339                     l153:
  1590  0339  0008               	return
  1591  033A                     __end_of_servo3_19:
  1592                           
  1593                           	psect	text4
  1594  033A                     __ptext4:	
  1595 ;; *************** function _servo3_18 *****************
  1596 ;; Defined at:
  1597 ;;		line 317 in file "main_brazo.c"
  1598 ;; Parameters:    Size  Location     Type
  1599 ;;		None
  1600 ;; Auto vars:     Size  Location     Type
  1601 ;;		None
  1602 ;; Return value:  Size  Location     Type
  1603 ;;                  1    wreg      void 
  1604 ;; Registers used:
  1605 ;;		wreg, status,2, btemp+1
  1606 ;; Tracked objects:
  1607 ;;		On entry : 0/0
  1608 ;;		On exit  : 0/0
  1609 ;;		Unchanged: 0/0
  1610 ;; Data sizes:     COMMON   BANK0   BANK1   BANK3   BANK2
  1611 ;;      Params:         0       0       0       0       0
  1612 ;;      Locals:         0       0       0       0       0
  1613 ;;      Temps:          0       2       0       0       0
  1614 ;;      Totals:         0       2       0       0       0
  1615 ;;Total ram usage:        2 bytes
  1616 ;; Hardware stack levels used:    1
  1617 ;; Hardware stack levels required when called:    1
  1618 ;; This function calls:
  1619 ;;		Nothing
  1620 ;; This function is called by:
  1621 ;;		_main
  1622 ;; This function uses a non-reentrant model
  1623 ;;
  1624                           
  1625                           
  1626                           ;psect for function _servo3_18
  1627  033A                     _servo3_18:
  1628  033A                     l1558:	
  1629                           ;incstack = 0
  1630                           ; Regs used in _servo3_18: [wreg+status,2+btemp+1]
  1631                           
  1632                           
  1633                           ;main_brazo.c: 319:     for (servo3_2 = 0; servo3_2 <= 15; servo3_2++)
  1634  033A  1283               	bcf	3,5	;RP0=0, select bank0
  1635  033B  1303               	bcf	3,6	;RP1=0, select bank0
  1636  033C  01A0               	clrf	_servo3_2
  1637  033D  01A1               	clrf	_servo3_2+1
  1638  033E                     l1560:
  1639  033E  0821               	movf	_servo3_2+1,w
  1640  033F  3A80               	xorlw	128
  1641  0340  00FF               	movwf	btemp+1
  1642  0341  3080               	movlw	128
  1643  0342  027F               	subwf	btemp+1,w
  1644  0343  1D03               	skipz
  1645  0344  2B47               	goto	u525
  1646  0345  3010               	movlw	16
  1647  0346  0220               	subwf	_servo3_2,w
  1648  0347                     u525:
  1649  0347  1C03               	skipc
  1650  0348  2B4A               	goto	u521
  1651  0349  2B4B               	goto	u520
  1652  034A                     u521:
  1653  034A  2B4C               	goto	l156
  1654  034B                     u520:
  1655  034B  2B70               	goto	l158
  1656  034C                     l156:
  1657                           
  1658                           ;main_brazo.c: 320:         {;main_brazo.c: 321:             PORTDbits.RD2 = 1;
  1659  034C  1283               	bcf	3,5	;RP0=0, select bank0
  1660  034D  1303               	bcf	3,6	;RP1=0, select bank0
  1661  034E  1508               	bsf	8,2	;volatile
  1662  034F                     l1564:
  1663                           
  1664                           ;main_brazo.c: 322:             _delay((unsigned long)((1.5)*(8000000/4000.0)));
  1665  034F  3004               	movlw	4
  1666  0350  1283               	bcf	3,5	;RP0=0, select bank0
  1667  0351  1303               	bcf	3,6	;RP1=0, select bank0
  1668  0352  00AA               	movwf	??_servo3_18+1
  1669  0353  30E3               	movlw	227
  1670  0354  00A9               	movwf	??_servo3_18
  1671  0355                     u837:
  1672  0355  0BA9               	decfsz	??_servo3_18,f
  1673  0356  2B55               	goto	u837
  1674  0357  0BAA               	decfsz	??_servo3_18+1,f
  1675  0358  2B55               	goto	u837
  1676  0359  2B5A               	nop2
  1677  035A                     l1566:
  1678                           
  1679                           ;main_brazo.c: 323:             PORTDbits.RD2 = 0;
  1680  035A  1283               	bcf	3,5	;RP0=0, select bank0
  1681  035B  1303               	bcf	3,6	;RP1=0, select bank0
  1682  035C  1108               	bcf	8,2	;volatile
  1683                           
  1684                           ;main_brazo.c: 324:             _delay((unsigned long)((18.5)*(8000000/4000.0)));
  1685  035D  3031               	movlw	49
  1686  035E  1283               	bcf	3,5	;RP0=0, select bank0
  1687  035F  1303               	bcf	3,6	;RP1=0, select bank0
  1688  0360  00AA               	movwf	??_servo3_18+1
  1689  0361  300B               	movlw	11
  1690  0362  00A9               	movwf	??_servo3_18
  1691  0363                     u847:
  1692  0363  0BA9               	decfsz	??_servo3_18,f
  1693  0364  2B63               	goto	u847
  1694  0365  0BAA               	decfsz	??_servo3_18+1,f
  1695  0366  2B63               	goto	u847
  1696                           
  1697                           ;main_brazo.c: 325:         }
  1698  0367  3001               	movlw	1
  1699  0368  1283               	bcf	3,5	;RP0=0, select bank0
  1700  0369  1303               	bcf	3,6	;RP1=0, select bank0
  1701  036A  07A0               	addwf	_servo3_2,f
  1702  036B  1803               	skipnc
  1703  036C  0AA1               	incf	_servo3_2+1,f
  1704  036D  3000               	movlw	0
  1705  036E  07A1               	addwf	_servo3_2+1,f
  1706  036F  2B3E               	goto	l1560
  1707  0370                     l158:
  1708  0370  0008               	return
  1709  0371                     __end_of_servo3_18:
  1710                           
  1711                           	psect	text5
  1712  0371                     __ptext5:	
  1713 ;; *************** function _servo2_19 *****************
  1714 ;; Defined at:
  1715 ;;		line 281 in file "main_brazo.c"
  1716 ;; Parameters:    Size  Location     Type
  1717 ;;		None
  1718 ;; Auto vars:     Size  Location     Type
  1719 ;;		None
  1720 ;; Return value:  Size  Location     Type
  1721 ;;                  1    wreg      void 
  1722 ;; Registers used:
  1723 ;;		wreg, status,2, btemp+1
  1724 ;; Tracked objects:
  1725 ;;		On entry : 0/0
  1726 ;;		On exit  : 0/0
  1727 ;;		Unchanged: 0/0
  1728 ;; Data sizes:     COMMON   BANK0   BANK1   BANK3   BANK2
  1729 ;;      Params:         0       0       0       0       0
  1730 ;;      Locals:         0       0       0       0       0
  1731 ;;      Temps:          0       2       0       0       0
  1732 ;;      Totals:         0       2       0       0       0
  1733 ;;Total ram usage:        2 bytes
  1734 ;; Hardware stack levels used:    1
  1735 ;; Hardware stack levels required when called:    1
  1736 ;; This function calls:
  1737 ;;		Nothing
  1738 ;; This function is called by:
  1739 ;;		_main
  1740 ;; This function uses a non-reentrant model
  1741 ;;
  1742                           
  1743                           
  1744                           ;psect for function _servo2_19
  1745  0371                     _servo2_19:
  1746  0371                     l1522:	
  1747                           ;incstack = 0
  1748                           ; Regs used in _servo2_19: [wreg+status,2+btemp+1]
  1749                           
  1750                           
  1751                           ;main_brazo.c: 283:     for (servo2_1 = 0; servo2_1 <= 15; servo2_1++)
  1752  0371  1283               	bcf	3,5	;RP0=0, select bank0
  1753  0372  1303               	bcf	3,6	;RP1=0, select bank0
  1754  0373  01A6               	clrf	_servo2_1
  1755  0374  01A7               	clrf	_servo2_1+1
  1756  0375                     l1524:
  1757  0375  0827               	movf	_servo2_1+1,w
  1758  0376  3A80               	xorlw	128
  1759  0377  00FF               	movwf	btemp+1
  1760  0378  3080               	movlw	128
  1761  0379  027F               	subwf	btemp+1,w
  1762  037A  1D03               	skipz
  1763  037B  2B7E               	goto	u495
  1764  037C  3010               	movlw	16
  1765  037D  0226               	subwf	_servo2_1,w
  1766  037E                     u495:
  1767  037E  1C03               	skipc
  1768  037F  2B81               	goto	u491
  1769  0380  2B82               	goto	u490
  1770  0381                     u491:
  1771  0381  2B83               	goto	l141
  1772  0382                     u490:
  1773  0382  2BA7               	goto	l143
  1774  0383                     l141:
  1775                           
  1776                           ;main_brazo.c: 284:         {;main_brazo.c: 285:             PORTDbits.RD1 = 1;
  1777  0383  1283               	bcf	3,5	;RP0=0, select bank0
  1778  0384  1303               	bcf	3,6	;RP1=0, select bank0
  1779  0385  1488               	bsf	8,1	;volatile
  1780  0386                     l1528:
  1781                           
  1782                           ;main_brazo.c: 286:             _delay((unsigned long)((1)*(8000000/4000.0)));
  1783  0386  3003               	movlw	3
  1784  0387  1283               	bcf	3,5	;RP0=0, select bank0
  1785  0388  1303               	bcf	3,6	;RP1=0, select bank0
  1786  0389  00AA               	movwf	??_servo2_19+1
  1787  038A  3097               	movlw	151
  1788  038B  00A9               	movwf	??_servo2_19
  1789  038C                     u857:
  1790  038C  0BA9               	decfsz	??_servo2_19,f
  1791  038D  2B8C               	goto	u857
  1792  038E  0BAA               	decfsz	??_servo2_19+1,f
  1793  038F  2B8C               	goto	u857
  1794  0390                     l1530:
  1795                           
  1796                           ;main_brazo.c: 287:             PORTDbits.RD1 = 0;
  1797  0390  1283               	bcf	3,5	;RP0=0, select bank0
  1798  0391  1303               	bcf	3,6	;RP1=0, select bank0
  1799  0392  1088               	bcf	8,1	;volatile
  1800                           
  1801                           ;main_brazo.c: 288:             _delay((unsigned long)((19)*(8000000/4000.0)));
  1802  0393  3032               	movlw	50
  1803  0394  1283               	bcf	3,5	;RP0=0, select bank0
  1804  0395  1303               	bcf	3,6	;RP1=0, select bank0
  1805  0396  00AA               	movwf	??_servo2_19+1
  1806  0397  3057               	movlw	87
  1807  0398  00A9               	movwf	??_servo2_19
  1808  0399                     u867:
  1809  0399  0BA9               	decfsz	??_servo2_19,f
  1810  039A  2B99               	goto	u867
  1811  039B  0BAA               	decfsz	??_servo2_19+1,f
  1812  039C  2B99               	goto	u867
  1813  039D  2B9E               	nop2
  1814                           
  1815                           ;main_brazo.c: 289:         }
  1816  039E  3001               	movlw	1
  1817  039F  1283               	bcf	3,5	;RP0=0, select bank0
  1818  03A0  1303               	bcf	3,6	;RP1=0, select bank0
  1819  03A1  07A6               	addwf	_servo2_1,f
  1820  03A2  1803               	skipnc
  1821  03A3  0AA7               	incf	_servo2_1+1,f
  1822  03A4  3000               	movlw	0
  1823  03A5  07A7               	addwf	_servo2_1+1,f
  1824  03A6  2B75               	goto	l1524
  1825  03A7                     l143:
  1826  03A7  0008               	return
  1827  03A8                     __end_of_servo2_19:
  1828                           
  1829                           	psect	text6
  1830  03A8                     __ptext6:	
  1831 ;; *************** function _servo2_18 *****************
  1832 ;; Defined at:
  1833 ;;		line 293 in file "main_brazo.c"
  1834 ;; Parameters:    Size  Location     Type
  1835 ;;		None
  1836 ;; Auto vars:     Size  Location     Type
  1837 ;;		None
  1838 ;; Return value:  Size  Location     Type
  1839 ;;                  1    wreg      void 
  1840 ;; Registers used:
  1841 ;;		wreg, status,2, btemp+1
  1842 ;; Tracked objects:
  1843 ;;		On entry : 0/0
  1844 ;;		On exit  : 0/0
  1845 ;;		Unchanged: 0/0
  1846 ;; Data sizes:     COMMON   BANK0   BANK1   BANK3   BANK2
  1847 ;;      Params:         0       0       0       0       0
  1848 ;;      Locals:         0       0       0       0       0
  1849 ;;      Temps:          0       2       0       0       0
  1850 ;;      Totals:         0       2       0       0       0
  1851 ;;Total ram usage:        2 bytes
  1852 ;; Hardware stack levels used:    1
  1853 ;; Hardware stack levels required when called:    1
  1854 ;; This function calls:
  1855 ;;		Nothing
  1856 ;; This function is called by:
  1857 ;;		_main
  1858 ;; This function uses a non-reentrant model
  1859 ;;
  1860                           
  1861                           
  1862                           ;psect for function _servo2_18
  1863  03A8                     _servo2_18:
  1864  03A8                     l1534:	
  1865                           ;incstack = 0
  1866                           ; Regs used in _servo2_18: [wreg+status,2+btemp+1]
  1867                           
  1868                           
  1869                           ;main_brazo.c: 295:     for (servo2_2 = 0; servo2_2 <= 15; servo2_2++)
  1870  03A8  1283               	bcf	3,5	;RP0=0, select bank0
  1871  03A9  1303               	bcf	3,6	;RP1=0, select bank0
  1872  03AA  01A4               	clrf	_servo2_2
  1873  03AB  01A5               	clrf	_servo2_2+1
  1874  03AC                     l1536:
  1875  03AC  0825               	movf	_servo2_2+1,w
  1876  03AD  3A80               	xorlw	128
  1877  03AE  00FF               	movwf	btemp+1
  1878  03AF  3080               	movlw	128
  1879  03B0  027F               	subwf	btemp+1,w
  1880  03B1  1D03               	skipz
  1881  03B2  2BB5               	goto	u505
  1882  03B3  3010               	movlw	16
  1883  03B4  0224               	subwf	_servo2_2,w
  1884  03B5                     u505:
  1885  03B5  1C03               	skipc
  1886  03B6  2BB8               	goto	u501
  1887  03B7  2BB9               	goto	u500
  1888  03B8                     u501:
  1889  03B8  2BBA               	goto	l146
  1890  03B9                     u500:
  1891  03B9  2BDE               	goto	l148
  1892  03BA                     l146:
  1893                           
  1894                           ;main_brazo.c: 296:         {;main_brazo.c: 297:             PORTDbits.RD1 = 1;
  1895  03BA  1283               	bcf	3,5	;RP0=0, select bank0
  1896  03BB  1303               	bcf	3,6	;RP1=0, select bank0
  1897  03BC  1488               	bsf	8,1	;volatile
  1898  03BD                     l1540:
  1899                           
  1900                           ;main_brazo.c: 298:             _delay((unsigned long)((1.5)*(8000000/4000.0)));
  1901  03BD  3004               	movlw	4
  1902  03BE  1283               	bcf	3,5	;RP0=0, select bank0
  1903  03BF  1303               	bcf	3,6	;RP1=0, select bank0
  1904  03C0  00AA               	movwf	??_servo2_18+1
  1905  03C1  30E3               	movlw	227
  1906  03C2  00A9               	movwf	??_servo2_18
  1907  03C3                     u877:
  1908  03C3  0BA9               	decfsz	??_servo2_18,f
  1909  03C4  2BC3               	goto	u877
  1910  03C5  0BAA               	decfsz	??_servo2_18+1,f
  1911  03C6  2BC3               	goto	u877
  1912  03C7  2BC8               	nop2
  1913  03C8                     l1542:
  1914                           
  1915                           ;main_brazo.c: 299:             PORTDbits.RD1 = 0;
  1916  03C8  1283               	bcf	3,5	;RP0=0, select bank0
  1917  03C9  1303               	bcf	3,6	;RP1=0, select bank0
  1918  03CA  1088               	bcf	8,1	;volatile
  1919                           
  1920                           ;main_brazo.c: 300:             _delay((unsigned long)((18.5)*(8000000/4000.0)));
  1921  03CB  3031               	movlw	49
  1922  03CC  1283               	bcf	3,5	;RP0=0, select bank0
  1923  03CD  1303               	bcf	3,6	;RP1=0, select bank0
  1924  03CE  00AA               	movwf	??_servo2_18+1
  1925  03CF  300B               	movlw	11
  1926  03D0  00A9               	movwf	??_servo2_18
  1927  03D1                     u887:
  1928  03D1  0BA9               	decfsz	??_servo2_18,f
  1929  03D2  2BD1               	goto	u887
  1930  03D3  0BAA               	decfsz	??_servo2_18+1,f
  1931  03D4  2BD1               	goto	u887
  1932                           
  1933                           ;main_brazo.c: 301:         }
  1934  03D5  3001               	movlw	1
  1935  03D6  1283               	bcf	3,5	;RP0=0, select bank0
  1936  03D7  1303               	bcf	3,6	;RP1=0, select bank0
  1937  03D8  07A4               	addwf	_servo2_2,f
  1938  03D9  1803               	skipnc
  1939  03DA  0AA5               	incf	_servo2_2+1,f
  1940  03DB  3000               	movlw	0
  1941  03DC  07A5               	addwf	_servo2_2+1,f
  1942  03DD  2BAC               	goto	l1536
  1943  03DE                     l148:
  1944  03DE  0008               	return
  1945  03DF                     __end_of_servo2_18:
  1946                           
  1947                           	psect	text7
  1948  03DF                     __ptext7:	
  1949 ;; *************** function _servo1_19 *****************
  1950 ;; Defined at:
  1951 ;;		line 256 in file "main_brazo.c"
  1952 ;; Parameters:    Size  Location     Type
  1953 ;;		None
  1954 ;; Auto vars:     Size  Location     Type
  1955 ;;		None
  1956 ;; Return value:  Size  Location     Type
  1957 ;;                  1    wreg      void 
  1958 ;; Registers used:
  1959 ;;		wreg, status,2, btemp+1
  1960 ;; Tracked objects:
  1961 ;;		On entry : 0/0
  1962 ;;		On exit  : 0/0
  1963 ;;		Unchanged: 0/0
  1964 ;; Data sizes:     COMMON   BANK0   BANK1   BANK3   BANK2
  1965 ;;      Params:         0       0       0       0       0
  1966 ;;      Locals:         0       0       0       0       0
  1967 ;;      Temps:          0       2       0       0       0
  1968 ;;      Totals:         0       2       0       0       0
  1969 ;;Total ram usage:        2 bytes
  1970 ;; Hardware stack levels used:    1
  1971 ;; Hardware stack levels required when called:    1
  1972 ;; This function calls:
  1973 ;;		Nothing
  1974 ;; This function is called by:
  1975 ;;		_main
  1976 ;; This function uses a non-reentrant model
  1977 ;;
  1978                           
  1979                           
  1980                           ;psect for function _servo1_19
  1981  03DF                     _servo1_19:
  1982  03DF                     l1498:	
  1983                           ;incstack = 0
  1984                           ; Regs used in _servo1_19: [wreg+status,2+btemp+1]
  1985                           
  1986                           
  1987                           ;main_brazo.c: 258:     for (servo1_1 = 0; servo1_1 <= 15; servo1_1++)
  1988  03DF  01F2               	clrf	_servo1_1
  1989  03E0  01F3               	clrf	_servo1_1+1
  1990  03E1                     l1500:
  1991  03E1  0873               	movf	_servo1_1+1,w
  1992  03E2  3A80               	xorlw	128
  1993  03E3  00FF               	movwf	btemp+1
  1994  03E4  3080               	movlw	128
  1995  03E5  027F               	subwf	btemp+1,w
  1996  03E6  1D03               	skipz
  1997  03E7  2BEA               	goto	u475
  1998  03E8  3010               	movlw	16
  1999  03E9  0272               	subwf	_servo1_1,w
  2000  03EA                     u475:
  2001  03EA  1C03               	skipc
  2002  03EB  2BED               	goto	u471
  2003  03EC  2BEE               	goto	u470
  2004  03ED                     u471:
  2005  03ED  2BEF               	goto	l131
  2006  03EE                     u470:
  2007  03EE  2C11               	goto	l133
  2008  03EF                     l131:
  2009                           
  2010                           ;main_brazo.c: 259:         {;main_brazo.c: 260:             PORTDbits.RD0 = 1;
  2011  03EF  1283               	bcf	3,5	;RP0=0, select bank0
  2012  03F0  1303               	bcf	3,6	;RP1=0, select bank0
  2013  03F1  1408               	bsf	8,0	;volatile
  2014  03F2                     l1504:
  2015                           
  2016                           ;main_brazo.c: 261:             _delay((unsigned long)((1)*(8000000/4000.0)));
  2017  03F2  3003               	movlw	3
  2018  03F3  1283               	bcf	3,5	;RP0=0, select bank0
  2019  03F4  1303               	bcf	3,6	;RP1=0, select bank0
  2020  03F5  00AA               	movwf	??_servo1_19+1
  2021  03F6  3097               	movlw	151
  2022  03F7  00A9               	movwf	??_servo1_19
  2023  03F8                     u897:
  2024  03F8  0BA9               	decfsz	??_servo1_19,f
  2025  03F9  2BF8               	goto	u897
  2026  03FA  0BAA               	decfsz	??_servo1_19+1,f
  2027  03FB  2BF8               	goto	u897
  2028  03FC                     l1506:
  2029                           
  2030                           ;main_brazo.c: 262:             PORTDbits.RD0 = 0;
  2031  03FC  1283               	bcf	3,5	;RP0=0, select bank0
  2032  03FD  1303               	bcf	3,6	;RP1=0, select bank0
  2033  03FE  1008               	bcf	8,0	;volatile
  2034                           
  2035                           ;main_brazo.c: 263:             _delay((unsigned long)((19)*(8000000/4000.0)));
  2036  03FF  3032               	movlw	50
  2037  0400  1283               	bcf	3,5	;RP0=0, select bank0
  2038  0401  1303               	bcf	3,6	;RP1=0, select bank0
  2039  0402  00AA               	movwf	??_servo1_19+1
  2040  0403  3057               	movlw	87
  2041  0404  00A9               	movwf	??_servo1_19
  2042  0405                     u907:
  2043  0405  0BA9               	decfsz	??_servo1_19,f
  2044  0406  2C05               	goto	u907
  2045  0407  0BAA               	decfsz	??_servo1_19+1,f
  2046  0408  2C05               	goto	u907
  2047  0409  2C0A               	nop2
  2048                           
  2049                           ;main_brazo.c: 264:         }
  2050  040A  3001               	movlw	1
  2051  040B  07F2               	addwf	_servo1_1,f
  2052  040C  1803               	skipnc
  2053  040D  0AF3               	incf	_servo1_1+1,f
  2054  040E  3000               	movlw	0
  2055  040F  07F3               	addwf	_servo1_1+1,f
  2056  0410  2BE1               	goto	l1500
  2057  0411                     l133:
  2058  0411  0008               	return
  2059  0412                     __end_of_servo1_19:
  2060                           
  2061                           	psect	text8
  2062  0412                     __ptext8:	
  2063 ;; *************** function _servo1_18 *****************
  2064 ;; Defined at:
  2065 ;;		line 268 in file "main_brazo.c"
  2066 ;; Parameters:    Size  Location     Type
  2067 ;;		None
  2068 ;; Auto vars:     Size  Location     Type
  2069 ;;		None
  2070 ;; Return value:  Size  Location     Type
  2071 ;;                  1    wreg      void 
  2072 ;; Registers used:
  2073 ;;		wreg, status,2, btemp+1
  2074 ;; Tracked objects:
  2075 ;;		On entry : 0/0
  2076 ;;		On exit  : 0/0
  2077 ;;		Unchanged: 0/0
  2078 ;; Data sizes:     COMMON   BANK0   BANK1   BANK3   BANK2
  2079 ;;      Params:         0       0       0       0       0
  2080 ;;      Locals:         0       0       0       0       0
  2081 ;;      Temps:          0       2       0       0       0
  2082 ;;      Totals:         0       2       0       0       0
  2083 ;;Total ram usage:        2 bytes
  2084 ;; Hardware stack levels used:    1
  2085 ;; Hardware stack levels required when called:    1
  2086 ;; This function calls:
  2087 ;;		Nothing
  2088 ;; This function is called by:
  2089 ;;		_main
  2090 ;; This function uses a non-reentrant model
  2091 ;;
  2092                           
  2093                           
  2094                           ;psect for function _servo1_18
  2095  0412                     _servo1_18:
  2096  0412                     l1510:	
  2097                           ;incstack = 0
  2098                           ; Regs used in _servo1_18: [wreg+status,2+btemp+1]
  2099                           
  2100                           
  2101                           ;main_brazo.c: 270:     for (servo1_2 = 0; servo1_2 <= 15; servo1_2++)
  2102  0412  01F0               	clrf	_servo1_2
  2103  0413  01F1               	clrf	_servo1_2+1
  2104  0414                     l1512:
  2105  0414  0871               	movf	_servo1_2+1,w
  2106  0415  3A80               	xorlw	128
  2107  0416  00FF               	movwf	btemp+1
  2108  0417  3080               	movlw	128
  2109  0418  027F               	subwf	btemp+1,w
  2110  0419  1D03               	skipz
  2111  041A  2C1D               	goto	u485
  2112  041B  3010               	movlw	16
  2113  041C  0270               	subwf	_servo1_2,w
  2114  041D                     u485:
  2115  041D  1C03               	skipc
  2116  041E  2C20               	goto	u481
  2117  041F  2C21               	goto	u480
  2118  0420                     u481:
  2119  0420  2C22               	goto	l136
  2120  0421                     u480:
  2121  0421  2C44               	goto	l138
  2122  0422                     l136:
  2123                           
  2124                           ;main_brazo.c: 271:         {;main_brazo.c: 272:             PORTDbits.RD0 = 1;
  2125  0422  1283               	bcf	3,5	;RP0=0, select bank0
  2126  0423  1303               	bcf	3,6	;RP1=0, select bank0
  2127  0424  1408               	bsf	8,0	;volatile
  2128  0425                     l1516:
  2129                           
  2130                           ;main_brazo.c: 273:             _delay((unsigned long)((1.5)*(8000000/4000.0)));
  2131  0425  3004               	movlw	4
  2132  0426  1283               	bcf	3,5	;RP0=0, select bank0
  2133  0427  1303               	bcf	3,6	;RP1=0, select bank0
  2134  0428  00AA               	movwf	??_servo1_18+1
  2135  0429  30E3               	movlw	227
  2136  042A  00A9               	movwf	??_servo1_18
  2137  042B                     u917:
  2138  042B  0BA9               	decfsz	??_servo1_18,f
  2139  042C  2C2B               	goto	u917
  2140  042D  0BAA               	decfsz	??_servo1_18+1,f
  2141  042E  2C2B               	goto	u917
  2142  042F  2C30               	nop2
  2143  0430                     l1518:
  2144                           
  2145                           ;main_brazo.c: 274:             PORTDbits.RD0 = 0;
  2146  0430  1283               	bcf	3,5	;RP0=0, select bank0
  2147  0431  1303               	bcf	3,6	;RP1=0, select bank0
  2148  0432  1008               	bcf	8,0	;volatile
  2149                           
  2150                           ;main_brazo.c: 275:             _delay((unsigned long)((18.5)*(8000000/4000.0)));
  2151  0433  3031               	movlw	49
  2152  0434  1283               	bcf	3,5	;RP0=0, select bank0
  2153  0435  1303               	bcf	3,6	;RP1=0, select bank0
  2154  0436  00AA               	movwf	??_servo1_18+1
  2155  0437  300B               	movlw	11
  2156  0438  00A9               	movwf	??_servo1_18
  2157  0439                     u927:
  2158  0439  0BA9               	decfsz	??_servo1_18,f
  2159  043A  2C39               	goto	u927
  2160  043B  0BAA               	decfsz	??_servo1_18+1,f
  2161  043C  2C39               	goto	u927
  2162                           
  2163                           ;main_brazo.c: 276:         }
  2164  043D  3001               	movlw	1
  2165  043E  07F0               	addwf	_servo1_2,f
  2166  043F  1803               	skipnc
  2167  0440  0AF1               	incf	_servo1_2+1,f
  2168  0441  3000               	movlw	0
  2169  0442  07F1               	addwf	_servo1_2+1,f
  2170  0443  2C14               	goto	l1512
  2171  0444                     l138:
  2172  0444  0008               	return
  2173  0445                     __end_of_servo1_18:
  2174                           
  2175                           	psect	text9
  2176  01AE                     __ptext9:	
  2177 ;; *************** function _isr *****************
  2178 ;; Defined at:
  2179 ;;		line 77 in file "main_brazo.c"
  2180 ;; Parameters:    Size  Location     Type
  2181 ;;		None
  2182 ;; Auto vars:     Size  Location     Type
  2183 ;;		None
  2184 ;; Return value:  Size  Location     Type
  2185 ;;                  1    wreg      void 
  2186 ;; Registers used:
  2187 ;;		wreg, status,2, status,0
  2188 ;; Tracked objects:
  2189 ;;		On entry : 0/0
  2190 ;;		On exit  : 0/0
  2191 ;;		Unchanged: 0/0
  2192 ;; Data sizes:     COMMON   BANK0   BANK1   BANK3   BANK2
  2193 ;;      Params:         0       0       0       0       0
  2194 ;;      Locals:         0       0       0       0       0
  2195 ;;      Temps:          4       0       0       0       0
  2196 ;;      Totals:         4       0       0       0       0
  2197 ;;Total ram usage:        4 bytes
  2198 ;; Hardware stack levels used:    1
  2199 ;; This function calls:
  2200 ;;		Nothing
  2201 ;; This function is called by:
  2202 ;;		Interrupt level 1
  2203 ;; This function uses a non-reentrant model
  2204 ;;
  2205                           
  2206                           
  2207                           ;psect for function _isr
  2208  01AE                     _isr:
  2209  01AE                     i1l1038:
  2210                           
  2211                           ;main_brazo.c: 79:     if (PIR1bits.ADIF)
  2212  01AE  1283               	bcf	3,5	;RP0=0, select bank0
  2213  01AF  1303               	bcf	3,6	;RP1=0, select bank0
  2214  01B0  1F0C               	btfss	12,6	;volatile
  2215  01B1  29B3               	goto	u21_21
  2216  01B2  29B4               	goto	u21_20
  2217  01B3                     u21_21:
  2218  01B3  2A2B               	goto	i1l109
  2219  01B4                     u21_20:
  2220  01B4                     i1l1040:
  2221                           
  2222                           ;main_brazo.c: 80:     {;main_brazo.c: 81:         if (ADCON0bits.CHS ==0)
  2223  01B4  0C1F               	rrf	31,w	;volatile
  2224  01B5  00F6               	movwf	??_isr
  2225  01B6  0C76               	rrf	??_isr,w
  2226  01B7  390F               	andlw	15
  2227  01B8  3A00               	xorlw	0
  2228  01B9  1D03               	skipz
  2229  01BA  29BC               	goto	u22_21
  2230  01BB  29BD               	goto	u22_20
  2231  01BC                     u22_21:
  2232  01BC  29E5               	goto	i1l106
  2233  01BD                     u22_20:
  2234  01BD                     i1l1042:
  2235                           
  2236                           ;main_brazo.c: 82:         {;main_brazo.c: 83:             CCPR1L = (ADRESH>>1)+62;
  2237  01BD  081E               	movf	30,w	;volatile
  2238  01BE  00F6               	movwf	??_isr
  2239  01BF  1003               	clrc
  2240  01C0  0C76               	rrf	??_isr,w
  2241  01C1  3E3E               	addlw	62
  2242  01C2  0095               	movwf	21	;volatile
  2243                           
  2244                           ;main_brazo.c: 84:             CCP1CONbits.DC1B1 = ADRESH & 0b01;
  2245  01C3  081E               	movf	30,w	;volatile
  2246  01C4  3901               	andlw	1
  2247  01C5  00F6               	movwf	??_isr
  2248  01C6  0EF6               	swapf	??_isr,f
  2249  01C7  0DF6               	rlf	??_isr,f
  2250  01C8  0817               	movf	23,w	;volatile
  2251  01C9  0676               	xorwf	??_isr,w
  2252  01CA  39DF               	andlw	-33
  2253  01CB  0676               	xorwf	??_isr,w
  2254  01CC  0097               	movwf	23	;volatile
  2255                           
  2256                           ;main_brazo.c: 85:             CCP1CONbits.DC1B0 = (ADRESL>>7);
  2257  01CD  1683               	bsf	3,5	;RP0=1, select bank1
  2258  01CE  1303               	bcf	3,6	;RP1=0, select bank1
  2259  01CF  081E               	movf	30,w	;volatile
  2260  01D0  00F6               	movwf	??_isr
  2261  01D1  3007               	movlw	7
  2262  01D2                     u23_25:
  2263  01D2  1003               	clrc
  2264  01D3  0CF6               	rrf	??_isr,f
  2265  01D4  3EFF               	addlw	-1
  2266  01D5  1D03               	skipz
  2267  01D6  29D2               	goto	u23_25
  2268  01D7  0876               	movf	??_isr,w
  2269  01D8  00F7               	movwf	??_isr+1
  2270  01D9  0EF7               	swapf	??_isr+1,f
  2271  01DA  1283               	bcf	3,5	;RP0=0, select bank0
  2272  01DB  1303               	bcf	3,6	;RP1=0, select bank0
  2273  01DC  0817               	movf	23,w	;volatile
  2274  01DD  0677               	xorwf	??_isr+1,w
  2275  01DE  39EF               	andlw	-17
  2276  01DF  0677               	xorwf	??_isr+1,w
  2277  01E0  0097               	movwf	23	;volatile
  2278                           
  2279                           ;main_brazo.c: 86:             ADCON0bits.CHS = 1;
  2280  01E1  081F               	movf	31,w	;volatile
  2281  01E2  39C3               	andlw	-61
  2282  01E3  3804               	iorlw	4
  2283  01E4  009F               	movwf	31	;volatile
  2284  01E5                     i1l106:	
  2285                           ;main_brazo.c: 87:         }
  2286                           
  2287                           
  2288                           ;main_brazo.c: 88:         if (ADCON0bits.CHS ==1)
  2289  01E5  0C1F               	rrf	31,w	;volatile
  2290  01E6  00F6               	movwf	??_isr
  2291  01E7  0C76               	rrf	??_isr,w
  2292  01E8  390F               	andlw	15
  2293  01E9  3A01               	xorlw	1
  2294  01EA  1D03               	skipz
  2295  01EB  29ED               	goto	u24_21
  2296  01EC  29EE               	goto	u24_20
  2297  01ED                     u24_21:
  2298  01ED  2A16               	goto	i1l107
  2299  01EE                     u24_20:
  2300  01EE                     i1l1044:
  2301                           
  2302                           ;main_brazo.c: 89:         {;main_brazo.c: 90:             CCPR2L = (ADRESH>>1)+62;
  2303  01EE  081E               	movf	30,w	;volatile
  2304  01EF  00F6               	movwf	??_isr
  2305  01F0  1003               	clrc
  2306  01F1  0C76               	rrf	??_isr,w
  2307  01F2  3E3E               	addlw	62
  2308  01F3  009B               	movwf	27	;volatile
  2309                           
  2310                           ;main_brazo.c: 91:             CCP2CONbits.DC2B1 = ADRESH & 0b01;
  2311  01F4  081E               	movf	30,w	;volatile
  2312  01F5  3901               	andlw	1
  2313  01F6  00F6               	movwf	??_isr
  2314  01F7  0EF6               	swapf	??_isr,f
  2315  01F8  0DF6               	rlf	??_isr,f
  2316  01F9  081D               	movf	29,w	;volatile
  2317  01FA  0676               	xorwf	??_isr,w
  2318  01FB  39DF               	andlw	-33
  2319  01FC  0676               	xorwf	??_isr,w
  2320  01FD  009D               	movwf	29	;volatile
  2321                           
  2322                           ;main_brazo.c: 92:             CCP2CONbits.DC2B0 = (ADRESL>>7);
  2323  01FE  1683               	bsf	3,5	;RP0=1, select bank1
  2324  01FF  1303               	bcf	3,6	;RP1=0, select bank1
  2325  0200  081E               	movf	30,w	;volatile
  2326  0201  00F6               	movwf	??_isr
  2327  0202  3007               	movlw	7
  2328  0203                     u25_25:
  2329  0203  1003               	clrc
  2330  0204  0CF6               	rrf	??_isr,f
  2331  0205  3EFF               	addlw	-1
  2332  0206  1D03               	skipz
  2333  0207  2A03               	goto	u25_25
  2334  0208  0876               	movf	??_isr,w
  2335  0209  00F7               	movwf	??_isr+1
  2336  020A  0EF7               	swapf	??_isr+1,f
  2337  020B  1283               	bcf	3,5	;RP0=0, select bank0
  2338  020C  1303               	bcf	3,6	;RP1=0, select bank0
  2339  020D  081D               	movf	29,w	;volatile
  2340  020E  0677               	xorwf	??_isr+1,w
  2341  020F  39EF               	andlw	-17
  2342  0210  0677               	xorwf	??_isr+1,w
  2343  0211  009D               	movwf	29	;volatile
  2344                           
  2345                           ;main_brazo.c: 93:             ADCON0bits.CHS = 2;
  2346  0212  081F               	movf	31,w	;volatile
  2347  0213  39C3               	andlw	-61
  2348  0214  3808               	iorlw	8
  2349  0215  009F               	movwf	31	;volatile
  2350  0216                     i1l107:	
  2351                           ;main_brazo.c: 94:         }
  2352                           
  2353                           
  2354                           ;main_brazo.c: 95:         if (ADCON0bits.CHS == 2)
  2355  0216  0C1F               	rrf	31,w	;volatile
  2356  0217  00F6               	movwf	??_isr
  2357  0218  0C76               	rrf	??_isr,w
  2358  0219  390F               	andlw	15
  2359  021A  3A02               	xorlw	2
  2360  021B  1D03               	skipz
  2361  021C  2A1E               	goto	u26_21
  2362  021D  2A1F               	goto	u26_20
  2363  021E                     u26_21:
  2364  021E  2A23               	goto	i1l1050
  2365  021F                     u26_20:
  2366  021F                     i1l1046:
  2367                           
  2368                           ;main_brazo.c: 96:         {;main_brazo.c: 97:             PORTE = ADRESH;
  2369  021F  081E               	movf	30,w	;volatile
  2370  0220  0089               	movwf	9	;volatile
  2371  0221                     i1l1048:
  2372                           
  2373                           ;main_brazo.c: 98:             ADCON0bits.CHS = 0;
  2374  0221  30C3               	movlw	-61
  2375  0222  059F               	andwf	31,f	;volatile
  2376  0223                     i1l1050:
  2377                           
  2378                           ;main_brazo.c: 101:         _delay((unsigned long)((50)*(8000000/4000000.0)));
  2379  0223  3021               	movlw	33
  2380  0224  00F6               	movwf	??_isr
  2381  0225                     u93_27:
  2382  0225  0BF6               	decfsz	??_isr,f
  2383  0226  2A25               	goto	u93_27
  2384  0227                     i1l1052:
  2385                           
  2386                           ;main_brazo.c: 102:         PIR1bits.ADIF =0;
  2387  0227  1283               	bcf	3,5	;RP0=0, select bank0
  2388  0228  1303               	bcf	3,6	;RP1=0, select bank0
  2389  0229  130C               	bcf	12,6	;volatile
  2390  022A                     i1l1054:
  2391                           
  2392                           ;main_brazo.c: 103:         ADCON0bits.GO = 1;
  2393  022A  149F               	bsf	31,1	;volatile
  2394  022B                     i1l109:
  2395  022B  0879               	movf	??_isr+3,w
  2396  022C  008A               	movwf	10
  2397  022D  0E78               	swapf	??_isr+2,w
  2398  022E  0083               	movwf	3
  2399  022F  0EFE               	swapf	btemp,f
  2400  0230  0E7E               	swapf	btemp,w
  2401  0231  0009               	retfie
  2402  0232                     __end_of_isr:
  2403  0001                     
  2404                           	psect	intentry
  2405  0004                     __pintentry:	
  2406                           ;incstack = 0
  2407                           ; Regs used in _isr: [wreg+status,2+status,0]
  2408                           
  2409  0004                     interrupt_function:
  2410  007E                     saved_w	set	btemp
  2411  0004  00FE               	movwf	btemp
  2412  0005  0E03               	swapf	3,w
  2413  0006  00F8               	movwf	??_isr+2
  2414  0007  080A               	movf	10,w
  2415  0008  00F9               	movwf	??_isr+3
  2416  0009  120A  118A  29AE   	ljmp	_isr
  2417                           
  2418                           	psect	functab
  2419  0024                     __pfunctab:
  2420  0024                     __fptable:
  2421  0024                     fptable:
  2422  0024  00FF               	movwf	(btemp+1)& (0+127)
  2423  0025  3000               	movlw	high fptable
  2424  0026  008A               	movwf	10
  2425  0027  087F               	movf	(btemp+1)& (0+127),w
  2426  0028  0782               	addwf	2,f
  2427  0029                     fpbase:
  2428  0029  2829               	goto	fpbase	; Call via a null pointer and you will get stuck here.
  2429  002A                     __end_of__fptable:
  2430  007E                     btemp	set	126	;btemp
  2431  007E                     wtemp0	set	126
  2432                           
  2433                           	psect	config
  2434                           
  2435                           ;Config register CONFIG1 @ 0x2007
  2436                           ;	Oscillator Selection bits
  2437                           ;	FOSC = INTRC_NOCLKOUT, INTOSCIO oscillator: I/O function on RA6/OSC2/CLKOUT pin, I/O f
      +                          unction on RA7/OSC1/CLKIN
  2438                           ;	Watchdog Timer Enable bit
  2439                           ;	WDTE = OFF, WDT disabled and can be enabled by SWDTEN bit of the WDTCON register
  2440                           ;	Power-up Timer Enable bit
  2441                           ;	PWRTE = OFF, PWRT disabled
  2442                           ;	RE3/MCLR pin function select bit
  2443                           ;	MCLRE = OFF, RE3/MCLR pin function is digital input, MCLR internally tied to VDD
  2444                           ;	Code Protection bit
  2445                           ;	CP = OFF, Program memory code protection is disabled
  2446                           ;	Data Code Protection bit
  2447                           ;	CPD = OFF, Data memory code protection is disabled
  2448                           ;	Brown Out Reset Selection bits
  2449                           ;	BOREN = OFF, BOR disabled
  2450                           ;	Internal External Switchover bit
  2451                           ;	IESO = OFF, Internal/External Switchover mode is disabled
  2452                           ;	Fail-Safe Clock Monitor Enabled bit
  2453                           ;	FCMEN = OFF, Fail-Safe Clock Monitor is disabled
  2454                           ;	Low Voltage Programming Enable bit
  2455                           ;	LVP = ON, RB3/PGM pin has PGM function, low voltage programming enabled
  2456                           ;	In-Circuit Debugger Mode bit
  2457                           ;	DEBUG = 0x1, unprogrammed default
  2458  2007                     	org	8199
  2459  2007  30D4               	dw	12500
  2460                           
  2461                           ;Config register CONFIG2 @ 0x2008
  2462                           ;	Brown-out Reset Selection bit
  2463                           ;	BOR4V = BOR40V, Brown-out Reset set to 4.0V
  2464                           ;	Flash Program Memory Self Write Enable bits
  2465                           ;	WRT = OFF, Write protection off
  2466  2008                     	org	8200
  2467  2008  3FFF               	dw	16383

Data Sizes:
    Strings     0
    Constant    0
    Data        0
    BSS         15
    Persistent  0
    Stack       0

Auto Spaces:
    Space          Size  Autos    Used
    COMMON           14      4      10
    BANK0            80      4      13
    BANK1            80      0       0
    BANK3            96      0       0
    BANK2            96      0       0

Pointer List with Targets:

    None.

Critical Paths under _main in COMMON

    None.

Critical Paths under _isr in COMMON

    None.

Critical Paths under _main in BANK0

    _main->_servo1_18
    _main->_servo1_19
    _main->_servo2_18
    _main->_servo2_19
    _main->_servo3_18
    _main->_servo3_19
    _main->_servos_loop

Critical Paths under _isr in BANK0

    None.

Critical Paths under _main in BANK1

    None.

Critical Paths under _isr in BANK1

    None.

Critical Paths under _main in BANK3

    None.

Critical Paths under _isr in BANK3

    None.

Critical Paths under _main in BANK2

    None.

Critical Paths under _isr in BANK2

    None.

Call Graph Tables:

 ---------------------------------------------------------------------------------
 (Depth) Function   	        Calls       Base Space   Used Autos Params    Refs
 ---------------------------------------------------------------------------------
 (0) _main                                                 2     2      0       0
                                              2 BANK0      2     2      0
                          _servo1_18
                          _servo1_19
                          _servo2_18
                          _servo2_19
                          _servo3_18
                          _servo3_19
                        _servos_loop
                              _setup
 ---------------------------------------------------------------------------------
 (1) _setup                                                1     1      0       0
                                              0 BANK0      1     1      0
 ---------------------------------------------------------------------------------
 (1) _servos_loop                                          2     2      0       0
                                              0 BANK0      2     2      0
 ---------------------------------------------------------------------------------
 (1) _servo3_19                                            2     2      0       0
                                              0 BANK0      2     2      0
 ---------------------------------------------------------------------------------
 (1) _servo3_18                                            2     2      0       0
                                              0 BANK0      2     2      0
 ---------------------------------------------------------------------------------
 (1) _servo2_19                                            2     2      0       0
                                              0 BANK0      2     2      0
 ---------------------------------------------------------------------------------
 (1) _servo2_18                                            2     2      0       0
                                              0 BANK0      2     2      0
 ---------------------------------------------------------------------------------
 (1) _servo1_19                                            2     2      0       0
                                              0 BANK0      2     2      0
 ---------------------------------------------------------------------------------
 (1) _servo1_18                                            2     2      0       0
                                              0 BANK0      2     2      0
 ---------------------------------------------------------------------------------
 Estimated maximum stack depth 1
 ---------------------------------------------------------------------------------
 (Depth) Function   	        Calls       Base Space   Used Autos Params    Refs
 ---------------------------------------------------------------------------------
 (2) _isr                                                  4     4      0       0
                                              0 COMMON     4     4      0
 ---------------------------------------------------------------------------------
 Estimated maximum stack depth 2
 ---------------------------------------------------------------------------------

 Call Graph Graphs:

 _main (ROOT)
   _servo1_18
   _servo1_19
   _servo2_18
   _servo2_19
   _servo3_18
   _servo3_19
   _servos_loop
   _setup

 _isr (ROOT)

 Address spaces:
Name               Size   Autos  Total    Cost      Usage
BITCOMMON            E      0       0       0        0.0%
EEDATA             100      0       0       0        0.0%
NULL                 0      0       0       0        0.0%
CODE                 0      0       0       0        0.0%
COMMON               E      4       A       1       71.4%
BITSFR0              0      0       0       1        0.0%
SFR0                 0      0       0       1        0.0%
BITSFR1              0      0       0       2        0.0%
SFR1                 0      0       0       2        0.0%
STACK                0      0       0       2        0.0%
ABS                  0      0      17       3        0.0%
BITBANK0            50      0       0       4        0.0%
BITSFR3              0      0       0       4        0.0%
SFR3                 0      0       0       4        0.0%
BANK0               50      4       D       5       16.2%
BITSFR2              0      0       0       5        0.0%
SFR2                 0      0       0       5        0.0%
BITBANK1            50      0       0       6        0.0%
BANK1               50      0       0       7        0.0%
BITBANK3            60      0       0       8        0.0%
BANK3               60      0       0       9        0.0%
BITBANK2            60      0       0      10        0.0%
BANK2               60      0       0      11        0.0%
DATA                 0      0      17      12        0.0%


Microchip Technology PIC Macro Assembler V2.31 build 20201012212115 
Symbol Table                                                                                   Sat May 22 20:31:17 2021

                      _x 0074                        pc 0002                      l131 03EF  
                    l133 0411                      l141 0383                      l143 03A7  
                    l151 0315                      l136 0422                      l128 02AD  
                    l153 0339                      l138 0444                      l146 03BA  
                    l170 0042                      l148 03DE                      l156 034C  
                    l173 007B                      l158 0370                      l182 0130  
                    l176 00B6                      l185 016D                      l179 00F3  
                    l188 01AD                      u500 03B9                      u501 03B8  
                    u510 0314                      _PR2 0092                      u511 0313  
                    u520 034B                      u600 00F2                      u505 03B5  
                    u521 034A                      u601 00F1                      u610 011E  
                    u530 0032                      u515 0310                      u611 011D  
                    u531 0031                      u620 012F                      u540 0041  
                    u525 0347                      u621 012E                      u605 00EE  
                    u541 0040                      u470 03EE                      u630 015B  
                    u550 006B                      u471 03ED                      u631 015A  
                    u551 006A                      u480 0421                      u640 016C  
                    u560 007A                      u481 0420                      u641 016B  
                    u625 012B                      u561 0079                      u545 003D  
                    u490 0382                      u650 0198                      u570 00A4  
                    u475 03EA                      u491 0381                      u651 0197  
                    u571 00A3                      u707 0058                      u660 01AD  
                    u580 00B5                      u485 041D                      u661 01AC  
                    u645 0168                      u581 00B4                      u717 0084  
                    u565 0076                      u590 00E1                      u495 037E  
                    u807 0184                      u591 00E0                      u727 0092  
                    u817 031E                      u665 01A9                      u737 00BF  
                    u585 00B1                      u907 0405                      u827 032B  
                    u747 00CC                      u917 042B                      u837 0355  
                    u757 00FC                      u677 025F                      u927 0439  
                    u847 0363                      u767 010A                      u687 02A7  
                    u857 038C                      u777 0139                      u697 004B  
                    u867 0399                      u787 0146                      u877 03C3  
                    u797 0176                      u887 03D1                      u897 03F8  
                    _isr 01AE                     l1410 0232                     l1500 03E1  
                   l1420 024F                     l1412 0242                     l1510 0412  
                   l1430 0259                     l1422 0250                     l1414 024A  
                   l1512 0414                     l1504 03F2                     l1600 0089  
                   l1440 026A                     l1432 025B                     l1424 0251  
                   l1416 024D                     l1506 03FC                     l1530 0390  
                   l1522 0371                     l1450 0279                     l1442 026E  
                   l1434 0262                     l1426 0252                     l1418 024E  
                   l1516 0425                     l1540 03BD                     l1524 0375  
                   l1620 00E1                     l1612 00B9                     l1604 009D  
                   l1460 0285                     l1452 027F                     l1444 0272  
                   l1436 0265                     l1428 0253                     l1518 0430  
                   l1542 03C8                     l1534 03A8                     l1622 00E5  
                   l1614 00C3                     l1606 00A4                     l1470 028C  
                   l1462 0286                     l1454 0281                     l1446 0274  
                   l1438 0269                     l1536 03AC                     l1528 0386  
                   l1560 033E                     l1552 0318                     l1640 0133  
                   l1632 0117                     l1608 00A8                     l1480 0298  
                   l1472 028D                     l1464 0287                     l1456 0282  
                   l1448 0276                     l1554 0322                     l1546 0303  
                   l1650 015F                     l1642 013D                     l1634 011E  
                   l1626 00F6                     l1618 00DA                     l1570 002A  
                   l1490 029F                     l1482 0299                     l1474 0290  
                   l1466 028A                     l1458 0283                     l1714 02E6  
                   l1564 034F                     l1548 0307                     l1660 0191  
                   l1636 0122                     l1628 0101                     l1580 0034  
                   l1492 02A0                     l1484 029A                     l1476 0294  
                   l1468 028B                     l1566 035A                     l1558 033A  
                   l1662 0198                     l1654 0170                     l1646 0154  
                   l1590 0064                     l1494 02A3                     l1486 029D  
                   l1478 0295                     l1670 02B3                     l1664 019A  
                   l1656 017B                     l1648 015B                     l1592 006B  
                   l1584 0045                     l1576 002C                     l1496 02AA  
                   l1488 029E                     l1680 02D2                     l1672 02BA  
                   l1498 03DF                     l1666 01A0                     l1594 006D  
                   l1586 004F                     l1578 0032                     l1682 02D8  
                   l1674 02C0                     l1676 02C6                     l1668 02AE  
                   l1598 007E                     l1678 02CC                     l1686 02DE  
                   l1688 02FA                     ?_isr 0076                     _main 02AE  
                   btemp 007E                     start 000C                    ??_isr 0076  
                  ?_main 0076                    i1l106 01E5                    i1l107 0216  
                  i1l109 022B                    _RCREG 001A                    u21_20 01B4  
                  u21_21 01B3                    u22_20 01BD                    u22_21 01BC  
                  u23_25 01D2                    u24_20 01EE                    u24_21 01ED  
                  u25_25 0203                    u26_20 021F                    u26_21 021E  
                  _SPBRG 0099                    _PORTA 0005                    _PORTB 0006  
                  _PORTC 0007                    _PORTD 0008                    _PORTE 0009  
                  _TRISE 0089                    u93_27 0225                    _setup 0232  
                  fpbase 0029                    pclath 000A                    status 0003  
                  wtemp0 007E          __initialization 000F             __end_of_main 0303  
                 ??_main 002B          fp__recepcion_rx 0000                   _ADRESH 001E  
                 _ADRESL 009E                   _CCPR1L 0015                   _CCPR2L 001B  
                 ?_setup 0076                   i1l1040 01B4                   i1l1050 0223  
                 i1l1042 01BD                   i1l1052 0227                   i1l1044 01EE  
                 i1l1054 022A                   i1l1046 021F                   i1l1038 01AE  
                 i1l1048 0221                   _SPBRGH 009A         __end_of__fptable 002A  
                 fptable 0024                   fptotal 0001                   saved_w 007E  
           ?_servos_loop 0076  __end_of__initialization 0020           __pcstackCOMMON 0076  
          __end_of_setup 02AE                  ??_setup 0029               __pbssBANK0 0020  
             __pmaintext 02AE               __pintentry 0004       __size_of_servo1_18 0033  
     __size_of_servo1_19 0033       __size_of_servo2_18 0037       __size_of_servo2_19 0037  
     __size_of_servo3_18 0037       __size_of_servo3_19 0037                _ANSELbits 0188  
                __ptext1 0232                  __ptext2 002A                  __ptext3 0303  
                __ptext4 033A                  __ptext5 0371                  __ptext6 03A8  
                __ptext7 03DF                  __ptext8 0412                  __ptext9 01AE  
              _T2CONbits 0012             __size_of_isr 0084     end_of_initialization 0020  
      __end_of_servo1_18 0445        __end_of_servo1_19 0412        __end_of_servo2_18 03DF  
      __end_of_servo2_19 03A8        __end_of_servo3_18 0371        __end_of_servo3_19 033A  
   __size_of_servos_loop 0184                _RCSTAbits 0018                _PORTDbits 0008  
              _TRISAbits 0085                _TRISBbits 0086                _TRISCbits 0087  
              _TRISDbits 0088              _CCP1CONbits 0017              _CCP2CONbits 001D  
              _TXSTAbits 0098              _BAUDCTLbits 0187      start_initialization 000F  
            __end_of_isr 0232              __pbssCOMMON 0070                ___latbits 0002  
          __pcstackBANK0 0029        __size_of__fptable 0006                __pfunctab 0024  
          _dato_recibido 0028           __size_of_setup 007C        interrupt_function 0004  
           _recepcion_rx 0000                 _PIE1bits 008C                 _PIR1bits 000C  
              _servo1_18 0412                _servo1_19 03DF                _servo2_18 03A8  
              _servo2_19 0371                _servo3_18 033A                _servo3_19 0303  
             _ADCON0bits 001F               _ADCON1bits 009F            ??_servos_loop 0029  
             ?_servo1_18 0076               ?_servo1_19 0076               ?_servo2_18 0076  
             ?_servo2_19 0076               ?_servo3_18 0076               ?_servo3_19 0076  
               __fptable 0024            __size_of_main 0055      __end_of_servos_loop 01AE  
               _servo1_1 0072                 _servo1_2 0070                 _servo2_1 0026  
               _servo2_2 0024                 _servo3_1 0022                 _servo3_2 0020  
             _INTCONbits 000B                 intlevel1 0024               _OSCCONbits 008F  
            ??_servo1_18 0029              ??_servo1_19 0029              ??_servo2_18 0029  
            ??_servo2_19 0029              ??_servo3_18 0029              ??_servo3_19 0029  
            _servos_loop 002A  
