

Microchip MPLAB XC8 Assembler V2.31 build 20201012212115 
                                                                                               Mon May 24 01:21:48 2021

Microchip MPLAB XC8 C Compiler v2.31 (Free license) build 20201012212115 Og1 
     1                           	processor	16F887
     2                           	pagewidth 120
     3                           	opt	flic
     4                           	psect	strings,global,class=STRING,delta=2,noexec
     5                           	psect	cinit,global,class=CODE,merge=1,delta=2
     6                           	psect	bssCOMMON,global,class=COMMON,space=1,delta=1,noexec
     7                           	psect	bssBANK0,global,class=BANK0,space=1,delta=1,noexec
     8                           	psect	cstackCOMMON,global,class=COMMON,space=1,delta=1,noexec
     9                           	psect	cstackBANK0,global,class=BANK0,space=1,delta=1,noexec
    10                           	psect	maintext,global,class=CODE,split=1,delta=2
    11                           	psect	text1,local,class=CODE,merge=1,delta=2
    12                           	psect	text2,local,class=CODE,merge=1,delta=2
    13                           	psect	text3,local,class=CODE,merge=1,delta=2
    14                           	psect	text4,local,class=CODE,merge=1,delta=2
    15                           	psect	text5,local,class=CODE,merge=1,delta=2
    16                           	psect	text6,local,class=CODE,merge=1,delta=2
    17                           	psect	text7,local,class=CODE,merge=1,delta=2
    18                           	psect	text8,local,class=CODE,merge=1,delta=2
    19                           	psect	text9,local,class=CODE,merge=1,delta=2
    20                           	psect	text10,local,class=CODE,merge=1,delta=2
    21                           	psect	intentry,global,class=CODE,delta=2
    22                           	psect	functab,global,class=ENTRY,delta=2
    23                           	psect	config,global,abs,ovrld,class=CONFIG,space=4,delta=2,noexec
    24                           	dabs	1,0x7E,2
    25  0000                     
    26                           ; Version 2.20
    27                           ; Generated 12/02/2020 GMT
    28                           ; 
    29                           ; Copyright © 2020, Microchip Technology Inc. and its subsidiaries ("Microchip")
    30                           ; All rights reserved.
    31                           ; 
    32                           ; This software is developed by Microchip Technology Inc. and its subsidiaries ("Microch
      +                          ip").
    33                           ; 
    34                           ; Redistribution and use in source and binary forms, with or without modification, are
    35                           ; permitted provided that the following conditions are met:
    36                           ; 
    37                           ;     1. Redistributions of source code must retain the above copyright notice, this lis
      +                          t of
    38                           ;        conditions and the following disclaimer.
    39                           ; 
    40                           ;     2. Redistributions in binary form must reproduce the above copyright notice, this 
      +                          list
    41                           ;        of conditions and the following disclaimer in the documentation and/or other
    42                           ;        materials provided with the distribution.
    43                           ; 
    44                           ;     3. Microchip's name may not be used to endorse or promote products derived from th
      +                          is
    45                           ;        software without specific prior written permission.
    46                           ; 
    47                           ; THIS SOFTWARE IS PROVIDED BY MICROCHIP "AS IS" AND ANY EXPRESS OR IMPLIED WARRANTIES,
    48                           ; INCLUDING, BUT NOT LIMITED TO, THE IMPLIED WARRANTIES OF MERCHANTABILITY AND FITNESS F
      +                          OR
    49                           ; PURPOSE ARE DISCLAIMED.  IN NO EVENT SHALL MICROCHIP BE LIABLE FOR ANY DIRECT, INDIREC
      +                          T,
    50                           ; INCIDENTAL, SPECIAL, EXEMPLARY, OR CONSEQUENTIAL DAMAGES (INCLUDING BUT NOT LIMITED TO
    51                           ; PROCUREMENT OF SUBSTITUTE GOODS OR SERVICES; LOSS OF USE, DATA OR PROFITS; OR BUSINESS
    52                           ; INTERRUPTION) HOWSOEVER CAUSED AND ON ANY THEORY OF LIABILITY, WHETHER IN CONTRACT, ST
      +                          RICT
    53                           ; LIABILITY, OR TORT (INCLUDING NEGLIGENCE OR OTHERWISE) ARISING IN ANY WAY OUT OF THE U
      +                          SE OF
    54                           ; THIS SOFTWARE, EVEN IF ADVISED OF THE POSSIBILITY OF SUCH DAMAGE.
    55                           ; 
    56                           ; 
    57                           ; Code-generator required, PIC16F887 Definitions
    58                           ; 
    59                           ; SFR Addresses
    60  0000                     	;# 
    61  0001                     	;# 
    62  0002                     	;# 
    63  0003                     	;# 
    64  0004                     	;# 
    65  0005                     	;# 
    66  0006                     	;# 
    67  0007                     	;# 
    68  0008                     	;# 
    69  0009                     	;# 
    70  000A                     	;# 
    71  000B                     	;# 
    72  000C                     	;# 
    73  000D                     	;# 
    74  000E                     	;# 
    75  000E                     	;# 
    76  000F                     	;# 
    77  0010                     	;# 
    78  0011                     	;# 
    79  0012                     	;# 
    80  0013                     	;# 
    81  0014                     	;# 
    82  0015                     	;# 
    83  0015                     	;# 
    84  0016                     	;# 
    85  0017                     	;# 
    86  0018                     	;# 
    87  0019                     	;# 
    88  001A                     	;# 
    89  001B                     	;# 
    90  001B                     	;# 
    91  001C                     	;# 
    92  001D                     	;# 
    93  001E                     	;# 
    94  001F                     	;# 
    95  0081                     	;# 
    96  0085                     	;# 
    97  0086                     	;# 
    98  0087                     	;# 
    99  0088                     	;# 
   100  0089                     	;# 
   101  008C                     	;# 
   102  008D                     	;# 
   103  008E                     	;# 
   104  008F                     	;# 
   105  0090                     	;# 
   106  0091                     	;# 
   107  0092                     	;# 
   108  0093                     	;# 
   109  0093                     	;# 
   110  0093                     	;# 
   111  0094                     	;# 
   112  0095                     	;# 
   113  0096                     	;# 
   114  0097                     	;# 
   115  0098                     	;# 
   116  0099                     	;# 
   117  009A                     	;# 
   118  009B                     	;# 
   119  009C                     	;# 
   120  009D                     	;# 
   121  009E                     	;# 
   122  009F                     	;# 
   123  0105                     	;# 
   124  0107                     	;# 
   125  0108                     	;# 
   126  0109                     	;# 
   127  010C                     	;# 
   128  010C                     	;# 
   129  010D                     	;# 
   130  010E                     	;# 
   131  010F                     	;# 
   132  0185                     	;# 
   133  0187                     	;# 
   134  0188                     	;# 
   135  0189                     	;# 
   136  018C                     	;# 
   137  018D                     	;# 
   138  0000                     	;# 
   139  0001                     	;# 
   140  0002                     	;# 
   141  0003                     	;# 
   142  0004                     	;# 
   143  0005                     	;# 
   144  0006                     	;# 
   145  0007                     	;# 
   146  0008                     	;# 
   147  0009                     	;# 
   148  000A                     	;# 
   149  000B                     	;# 
   150  000C                     	;# 
   151  000D                     	;# 
   152  000E                     	;# 
   153  000E                     	;# 
   154  000F                     	;# 
   155  0010                     	;# 
   156  0011                     	;# 
   157  0012                     	;# 
   158  0013                     	;# 
   159  0014                     	;# 
   160  0015                     	;# 
   161  0015                     	;# 
   162  0016                     	;# 
   163  0017                     	;# 
   164  0018                     	;# 
   165  0019                     	;# 
   166  001A                     	;# 
   167  001B                     	;# 
   168  001B                     	;# 
   169  001C                     	;# 
   170  001D                     	;# 
   171  001E                     	;# 
   172  001F                     	;# 
   173  0081                     	;# 
   174  0085                     	;# 
   175  0086                     	;# 
   176  0087                     	;# 
   177  0088                     	;# 
   178  0089                     	;# 
   179  008C                     	;# 
   180  008D                     	;# 
   181  008E                     	;# 
   182  008F                     	;# 
   183  0090                     	;# 
   184  0091                     	;# 
   185  0092                     	;# 
   186  0093                     	;# 
   187  0093                     	;# 
   188  0093                     	;# 
   189  0094                     	;# 
   190  0095                     	;# 
   191  0096                     	;# 
   192  0097                     	;# 
   193  0098                     	;# 
   194  0099                     	;# 
   195  009A                     	;# 
   196  009B                     	;# 
   197  009C                     	;# 
   198  009D                     	;# 
   199  009E                     	;# 
   200  009F                     	;# 
   201  0105                     	;# 
   202  0107                     	;# 
   203  0108                     	;# 
   204  0109                     	;# 
   205  010C                     	;# 
   206  010C                     	;# 
   207  010D                     	;# 
   208  010E                     	;# 
   209  010F                     	;# 
   210  0185                     	;# 
   211  0187                     	;# 
   212  0188                     	;# 
   213  0189                     	;# 
   214  018C                     	;# 
   215  018D                     	;# 
   216                           
   217 ;; Function _recepcion_rx is unused but had its address taken
   218  0019                     _TXREG	set	25
   219  001A                     _RCREG	set	26
   220  0008                     _PORTDbits	set	8
   221  000B                     _INTCONbits	set	11
   222  0018                     _RCSTAbits	set	24
   223  0012                     _T2CONbits	set	18
   224  0008                     _PORTD	set	8
   225  0007                     _PORTC	set	7
   226  0006                     _PORTB	set	6
   227  0005                     _PORTA	set	5
   228  0009                     _PORTE	set	9
   229  001D                     _CCP2CONbits	set	29
   230  001B                     _CCPR2L	set	27
   231  0017                     _CCP1CONbits	set	23
   232  001E                     _ADRESH	set	30
   233  0015                     _CCPR1L	set	21
   234  001F                     _ADCON0bits	set	31
   235  000C                     _PIR1bits	set	12
   236  008C                     _PIE1bits	set	140
   237  009A                     _SPBRGH	set	154
   238  0099                     _SPBRG	set	153
   239  0098                     _TXSTAbits	set	152
   240  0092                     _PR2	set	146
   241  009F                     _ADCON1bits	set	159
   242  008F                     _OSCCONbits	set	143
   243  0089                     _TRISE	set	137
   244  0088                     _TRISDbits	set	136
   245  0087                     _TRISCbits	set	135
   246  0086                     _TRISBbits	set	134
   247  0085                     _TRISAbits	set	133
   248  009E                     _ADRESL	set	158
   249  0187                     _BAUDCTLbits	set	391
   250  0188                     _ANSELbits	set	392
   251                           
   252                           	psect	strings
   253  002A                     __pstrings:
   254  002A                     stringtab:
   255  002A                     __stringtab:
   256  002A                     stringcode:	
   257                           ;	String table - string pointers are 1 byte each
   258                           
   259  002A                     stringdir:
   260  002A  3000               	movlw	high stringdir
   261  002B  008A               	movwf	10
   262  002C  0804               	movf	4,w
   263  002D  0A84               	incf	4,f
   264  002E  0782               	addwf	2,f
   265  002F                     __stringbase:
   266  002F  3400               	retlw	0
   267  0030                     __end_of__stringtab:
   268  0030                     STR_1:
   269  0030  340D               	retlw	13
   270  0031  3420               	retlw	32	;' '
   271  0032  3451               	retlw	81	;'Q'
   272  0033  3475               	retlw	117	;'u'
   273  0034  3465               	retlw	101	;'e'
   274  0035  3420               	retlw	32	;' '
   275  0036  3461               	retlw	97	;'a'
   276  0037  3463               	retlw	99	;'c'
   277  0038  3463               	retlw	99	;'c'
   278  0039  3469               	retlw	105	;'i'
   279  003A  346F               	retlw	111	;'o'
   280  003B  346E               	retlw	110	;'n'
   281  003C  3420               	retlw	32	;' '
   282  003D  3464               	retlw	100	;'d'
   283  003E  3465               	retlw	101	;'e'
   284  003F  3473               	retlw	115	;'s'
   285  0040  3465               	retlw	101	;'e'
   286  0041  3461               	retlw	97	;'a'
   287  0042  3420               	retlw	32	;' '
   288  0043  3465               	retlw	101	;'e'
   289  0044  346A               	retlw	106	;'j'
   290  0045  3465               	retlw	101	;'e'
   291  0046  3463               	retlw	99	;'c'
   292  0047  3475               	retlw	117	;'u'
   293  0048  3474               	retlw	116	;'t'
   294  0049  3461               	retlw	97	;'a'
   295  004A  3472               	retlw	114	;'r'
   296  004B  343F               	retlw	63	;'?'
   297  004C  3420               	retlw	32	;' '
   298  004D  340D               	retlw	13
   299  004E  3400               	retlw	0
   300  004F                     STR_3:
   301  004F  3420               	retlw	32	;' '
   302  0050  3432               	retlw	50	;'2'
   303  0051  3429               	retlw	41	;')'
   304  0052  3420               	retlw	32	;' '
   305  0053  344D               	retlw	77	;'M'
   306  0054  346F               	retlw	111	;'o'
   307  0055  3476               	retlw	118	;'v'
   308  0056  3465               	retlw	101	;'e'
   309  0057  3472               	retlw	114	;'r'
   310  0058  3420               	retlw	32	;' '
   311  0059  3461               	retlw	97	;'a'
   312  005A  3420               	retlw	32	;' '
   313  005B  3434               	retlw	52	;'4'
   314  005C  3435               	retlw	53	;'5'
   315  005D  3420               	retlw	32	;' '
   316  005E  3473               	retlw	115	;'s'
   317  005F  3465               	retlw	101	;'e'
   318  0060  3472               	retlw	114	;'r'
   319  0061  3476               	retlw	118	;'v'
   320  0062  346F               	retlw	111	;'o'
   321  0063  3431               	retlw	49	;'1'
   322  0064  3420               	retlw	32	;' '
   323  0065  340D               	retlw	13
   324  0066  3400               	retlw	0
   325  0067                     STR_5:
   326  0067  3420               	retlw	32	;' '
   327  0068  3433               	retlw	51	;'3'
   328  0069  3429               	retlw	41	;')'
   329  006A  3420               	retlw	32	;' '
   330  006B  344D               	retlw	77	;'M'
   331  006C  346F               	retlw	111	;'o'
   332  006D  3476               	retlw	118	;'v'
   333  006E  3465               	retlw	101	;'e'
   334  006F  3472               	retlw	114	;'r'
   335  0070  3420               	retlw	32	;' '
   336  0071  3461               	retlw	97	;'a'
   337  0072  3420               	retlw	32	;' '
   338  0073  3434               	retlw	52	;'4'
   339  0074  3435               	retlw	53	;'5'
   340  0075  3420               	retlw	32	;' '
   341  0076  3473               	retlw	115	;'s'
   342  0077  3465               	retlw	101	;'e'
   343  0078  3472               	retlw	114	;'r'
   344  0079  3476               	retlw	118	;'v'
   345  007A  346F               	retlw	111	;'o'
   346  007B  3432               	retlw	50	;'2'
   347  007C  3420               	retlw	32	;' '
   348  007D  340D               	retlw	13
   349  007E  3400               	retlw	0
   350  007F                     STR_7:
   351  007F  3420               	retlw	32	;' '
   352  0080  3433               	retlw	51	;'3'
   353  0081  3429               	retlw	41	;')'
   354  0082  3420               	retlw	32	;' '
   355  0083  344D               	retlw	77	;'M'
   356  0084  346F               	retlw	111	;'o'
   357  0085  3476               	retlw	118	;'v'
   358  0086  3465               	retlw	101	;'e'
   359  0087  3472               	retlw	114	;'r'
   360  0088  3420               	retlw	32	;' '
   361  0089  3461               	retlw	97	;'a'
   362  008A  3420               	retlw	32	;' '
   363  008B  3434               	retlw	52	;'4'
   364  008C  3435               	retlw	53	;'5'
   365  008D  3420               	retlw	32	;' '
   366  008E  3473               	retlw	115	;'s'
   367  008F  3465               	retlw	101	;'e'
   368  0090  3472               	retlw	114	;'r'
   369  0091  3476               	retlw	118	;'v'
   370  0092  346F               	retlw	111	;'o'
   371  0093  3433               	retlw	51	;'3'
   372  0094  3420               	retlw	32	;' '
   373  0095  340D               	retlw	13
   374  0096  3400               	retlw	0
   375  0097                     STR_2:
   376  0097  3420               	retlw	32	;' '
   377  0098  3431               	retlw	49	;'1'
   378  0099  3429               	retlw	41	;')'
   379  009A  3420               	retlw	32	;' '
   380  009B  344D               	retlw	77	;'M'
   381  009C  346F               	retlw	111	;'o'
   382  009D  3476               	retlw	118	;'v'
   383  009E  3465               	retlw	101	;'e'
   384  009F  3472               	retlw	114	;'r'
   385  00A0  3420               	retlw	32	;' '
   386  00A1  3461               	retlw	97	;'a'
   387  00A2  3420               	retlw	32	;' '
   388  00A3  3430               	retlw	48	;'0'
   389  00A4  3420               	retlw	32	;' '
   390  00A5  3473               	retlw	115	;'s'
   391  00A6  3465               	retlw	101	;'e'
   392  00A7  3472               	retlw	114	;'r'
   393  00A8  3476               	retlw	118	;'v'
   394  00A9  346F               	retlw	111	;'o'
   395  00AA  3431               	retlw	49	;'1'
   396  00AB  3420               	retlw	32	;' '
   397  00AC  340D               	retlw	13
   398  00AD  3400               	retlw	0
   399  00AE                     STR_4:
   400  00AE  3420               	retlw	32	;' '
   401  00AF  3433               	retlw	51	;'3'
   402  00B0  3429               	retlw	41	;')'
   403  00B1  3420               	retlw	32	;' '
   404  00B2  344D               	retlw	77	;'M'
   405  00B3  346F               	retlw	111	;'o'
   406  00B4  3476               	retlw	118	;'v'
   407  00B5  3465               	retlw	101	;'e'
   408  00B6  3472               	retlw	114	;'r'
   409  00B7  3420               	retlw	32	;' '
   410  00B8  3461               	retlw	97	;'a'
   411  00B9  3420               	retlw	32	;' '
   412  00BA  3430               	retlw	48	;'0'
   413  00BB  3420               	retlw	32	;' '
   414  00BC  3473               	retlw	115	;'s'
   415  00BD  3465               	retlw	101	;'e'
   416  00BE  3472               	retlw	114	;'r'
   417  00BF  3476               	retlw	118	;'v'
   418  00C0  346F               	retlw	111	;'o'
   419  00C1  3432               	retlw	50	;'2'
   420  00C2  3420               	retlw	32	;' '
   421  00C3  340D               	retlw	13
   422  00C4  3400               	retlw	0
   423  00C5                     STR_6:
   424  00C5  3420               	retlw	32	;' '
   425  00C6  3433               	retlw	51	;'3'
   426  00C7  3429               	retlw	41	;')'
   427  00C8  3420               	retlw	32	;' '
   428  00C9  344D               	retlw	77	;'M'
   429  00CA  346F               	retlw	111	;'o'
   430  00CB  3476               	retlw	118	;'v'
   431  00CC  3465               	retlw	101	;'e'
   432  00CD  3472               	retlw	114	;'r'
   433  00CE  3420               	retlw	32	;' '
   434  00CF  3461               	retlw	97	;'a'
   435  00D0  3420               	retlw	32	;' '
   436  00D1  3430               	retlw	48	;'0'
   437  00D2  3420               	retlw	32	;' '
   438  00D3  3473               	retlw	115	;'s'
   439  00D4  3465               	retlw	101	;'e'
   440  00D5  3472               	retlw	114	;'r'
   441  00D6  3476               	retlw	118	;'v'
   442  00D7  346F               	retlw	111	;'o'
   443  00D8  3433               	retlw	51	;'3'
   444  00D9  3420               	retlw	32	;' '
   445  00DA  340D               	retlw	13
   446  00DB  3400               	retlw	0
   447                           
   448                           	psect	cinit
   449  000F                     start_initialization:	
   450                           ; #config settings
   451                           
   452  000F                     __initialization:
   453                           
   454                           ; Clear objects allocated to COMMON
   455  000F  01F0               	clrf	__pbssCOMMON& (0+127)
   456  0010  01F1               	clrf	(__pbssCOMMON+1)& (0+127)
   457  0011  01F2               	clrf	(__pbssCOMMON+2)& (0+127)
   458  0012  01F3               	clrf	(__pbssCOMMON+3)& (0+127)
   459  0013  01F4               	clrf	(__pbssCOMMON+4)& (0+127)
   460                           
   461                           ; Clear objects allocated to BANK0
   462  0014  1283               	bcf	3,5	;RP0=0, select bank0
   463  0015  1303               	bcf	3,6	;RP1=0, select bank0
   464  0016  01A0               	clrf	__pbssBANK0& (0+127)
   465  0017  01A1               	clrf	(__pbssBANK0+1)& (0+127)
   466  0018  01A2               	clrf	(__pbssBANK0+2)& (0+127)
   467  0019  01A3               	clrf	(__pbssBANK0+3)& (0+127)
   468  001A  01A4               	clrf	(__pbssBANK0+4)& (0+127)
   469  001B  01A5               	clrf	(__pbssBANK0+5)& (0+127)
   470  001C  01A6               	clrf	(__pbssBANK0+6)& (0+127)
   471  001D  01A7               	clrf	(__pbssBANK0+7)& (0+127)
   472  001E  01A8               	clrf	(__pbssBANK0+8)& (0+127)
   473  001F  01A9               	clrf	(__pbssBANK0+9)& (0+127)
   474  0020                     end_of_initialization:	
   475                           ;End of C runtime variable initialization code
   476                           
   477  0020                     __end_of__initialization:
   478  0020  0183               	clrf	3
   479  0021  120A  118A  2960   	ljmp	_main	;jump to C main() function
   480                           
   481                           	psect	bssCOMMON
   482  0070                     __pbssCOMMON:
   483  0070                     _servo1_1:
   484  0070                     	ds	2
   485  0072                     _x:
   486  0072                     	ds	2
   487  0074                     _dato_recibido:
   488  0074                     	ds	1
   489                           
   490                           	psect	bssBANK0
   491  0020                     __pbssBANK0:
   492  0020                     _servo3_2:
   493  0020                     	ds	2
   494  0022                     _servo3_1:
   495  0022                     	ds	2
   496  0024                     _servo2_2:
   497  0024                     	ds	2
   498  0026                     _servo2_1:
   499  0026                     	ds	2
   500  0028                     _servo1_2:
   501  0028                     	ds	2
   502                           
   503                           	psect	cstackCOMMON
   504  0075                     __pcstackCOMMON:
   505  0075                     ?_setup:
   506  0075                     ?_USART_Cadena:	
   507                           ; 1 bytes @ 0x0
   508                           
   509  0075                     ?_servo1_19:	
   510                           ; 1 bytes @ 0x0
   511                           
   512  0075                     ?_servo1_18:	
   513                           ; 1 bytes @ 0x0
   514                           
   515  0075                     ?_servo2_19:	
   516                           ; 1 bytes @ 0x0
   517                           
   518  0075                     ?_servo2_18:	
   519                           ; 1 bytes @ 0x0
   520                           
   521  0075                     ?_servo3_19:	
   522                           ; 1 bytes @ 0x0
   523                           
   524  0075                     ?_servo3_18:	
   525                           ; 1 bytes @ 0x0
   526                           
   527  0075                     ?_isr:	
   528                           ; 1 bytes @ 0x0
   529                           
   530  0075                     ??_isr:	
   531                           ; 1 bytes @ 0x0
   532                           
   533  0075                     ?_main:	
   534                           ; 1 bytes @ 0x0
   535                           
   536  0075                     ?_transmision_tx:	
   537                           ; 1 bytes @ 0x0
   538                           
   539                           
   540                           ; 1 bytes @ 0x0
   541  0075                     	ds	4
   542  0079                     ??_setup:
   543  0079                     ??_transmision_tx:	
   544                           ; 1 bytes @ 0x4
   545                           
   546  0079                     transmision_tx@data:	
   547                           ; 1 bytes @ 0x4
   548                           
   549                           
   550                           ; 1 bytes @ 0x4
   551  0079                     	ds	1
   552                           
   553                           	psect	cstackBANK0
   554  002A                     __pcstackBANK0:
   555  002A                     ??_USART_Cadena:
   556  002A                     ??_servo1_19:	
   557                           ; 1 bytes @ 0x0
   558                           
   559  002A                     ??_servo1_18:	
   560                           ; 1 bytes @ 0x0
   561                           
   562  002A                     ??_servo2_19:	
   563                           ; 1 bytes @ 0x0
   564                           
   565  002A                     ??_servo2_18:	
   566                           ; 1 bytes @ 0x0
   567                           
   568  002A                     ??_servo3_19:	
   569                           ; 1 bytes @ 0x0
   570                           
   571  002A                     ??_servo3_18:	
   572                           ; 1 bytes @ 0x0
   573                           
   574                           
   575                           ; 1 bytes @ 0x0
   576  002A                     	ds	1
   577  002B                     USART_Cadena@str:
   578                           
   579                           ; 1 bytes @ 0x1
   580  002B                     	ds	1
   581  002C                     ??_main:
   582                           
   583                           ; 1 bytes @ 0x2
   584  002C                     	ds	2
   585                           
   586                           	psect	maintext
   587  0160                     __pmaintext:	
   588 ;;
   589 ;;Main: autosize = 0, tempsize = 2, incstack = 0, save=0
   590 ;;
   591 ;; *************** function _main *****************
   592 ;; Defined at:
   593 ;;		line 115 in file "main_brazo.c"
   594 ;; Parameters:    Size  Location     Type
   595 ;;		None
   596 ;; Auto vars:     Size  Location     Type
   597 ;;		None
   598 ;; Return value:  Size  Location     Type
   599 ;;                  1    wreg      void 
   600 ;; Registers used:
   601 ;;		wreg, fsr0l, fsr0h, status,2, status,0, btemp+1, pclath, cstack
   602 ;; Tracked objects:
   603 ;;		On entry : B00/0
   604 ;;		On exit  : 0/0
   605 ;;		Unchanged: 0/0
   606 ;; Data sizes:     COMMON   BANK0   BANK1   BANK3   BANK2
   607 ;;      Params:         0       0       0       0       0
   608 ;;      Locals:         0       0       0       0       0
   609 ;;      Temps:          0       2       0       0       0
   610 ;;      Totals:         0       2       0       0       0
   611 ;;Total ram usage:        2 bytes
   612 ;; Hardware stack levels required when called:    3
   613 ;; This function calls:
   614 ;;		_USART_Cadena
   615 ;;		_servo1_18
   616 ;;		_servo1_19
   617 ;;		_servo2_18
   618 ;;		_servo2_19
   619 ;;		_servo3_18
   620 ;;		_servo3_19
   621 ;;		_setup
   622 ;; This function is called by:
   623 ;;		Startup code after reset
   624 ;; This function uses a non-reentrant model
   625 ;;
   626                           
   627                           
   628                           ;psect for function _main
   629  0160                     _main:
   630  0160                     l1452:	
   631                           ;incstack = 0
   632                           ; Regs used in _main: [wreg-fsr0h+status,2+status,0+btemp+1+pclath+cstack]
   633                           
   634                           
   635                           ;main_brazo.c: 117:     setup();
   636  0160  120A  118A  21DD  120A  118A  	fcall	_setup
   637  0165                     l1454:
   638                           
   639                           ;main_brazo.c: 121:     {;main_brazo.c: 122:         USART_Cadena("\r Que accion desea e
      +                          jecutar? \r");
   640  0165  3001               	movlw	(low ((STR_1-__stringbase)| (0+32768)))& (0+255)
   641  0166  120A  118A  239A  120A  118A  	fcall	_USART_Cadena
   642  016B                     l1456:
   643                           
   644                           ;main_brazo.c: 123:         USART_Cadena(" 1) Mover a 0 servo1 \r");
   645  016B  3068               	movlw	(low ((STR_2-__stringbase)| (0+32768)))& (0+255)
   646  016C  120A  118A  239A  120A  118A  	fcall	_USART_Cadena
   647  0171                     l1458:
   648                           
   649                           ;main_brazo.c: 124:         USART_Cadena(" 2) Mover a 45 servo1 \r");
   650  0171  3020               	movlw	(low ((STR_3-__stringbase)| (0+32768)))& (0+255)
   651  0172  120A  118A  239A  120A  118A  	fcall	_USART_Cadena
   652  0177                     l1460:
   653                           
   654                           ;main_brazo.c: 125:         USART_Cadena(" 3) Mover a 0 servo2 \r");
   655  0177  307F               	movlw	(low ((STR_4-__stringbase)| (0+32768)))& (0+255)
   656  0178  120A  118A  239A  120A  118A  	fcall	_USART_Cadena
   657  017D                     l1462:
   658                           
   659                           ;main_brazo.c: 126:         USART_Cadena(" 3) Mover a 45 servo2 \r");
   660  017D  3038               	movlw	(low ((STR_5-__stringbase)| (0+32768)))& (0+255)
   661  017E  120A  118A  239A  120A  118A  	fcall	_USART_Cadena
   662  0183                     l1464:
   663                           
   664                           ;main_brazo.c: 127:         USART_Cadena(" 3) Mover a 0 servo3 \r");
   665  0183  3096               	movlw	(low ((STR_6-__stringbase)| (0+32768)))& (0+255)
   666  0184  120A  118A  239A  120A  118A  	fcall	_USART_Cadena
   667  0189                     l1466:
   668                           
   669                           ;main_brazo.c: 128:         USART_Cadena(" 3) Mover a 45 servo3 \r");
   670  0189  3050               	movlw	(low ((STR_7-__stringbase)| (0+32768)))& (0+255)
   671  018A  120A  118A  239A  120A  118A  	fcall	_USART_Cadena
   672  018F                     l117:	
   673                           ;main_brazo.c: 130:         while (PIR1bits.RCIF==0);
   674                           
   675  018F  1283               	bcf	3,5	;RP0=0, select bank0
   676  0190  1303               	bcf	3,6	;RP1=0, select bank0
   677  0191  1E8C               	btfss	12,5	;volatile
   678  0192  2994               	goto	u591
   679  0193  2995               	goto	u590
   680  0194                     u591:
   681  0194  298F               	goto	l117
   682  0195                     u590:
   683  0195                     l1468:
   684                           
   685                           ;main_brazo.c: 132:         dato_recibido = recepcion_rx;
   686  0195  30D7               	movlw	(low (0-fpbase))& (0+255)
   687  0196  00AC               	movwf	??_main
   688  0197  082C               	movf	??_main,w
   689  0198  00F4               	movwf	_dato_recibido
   690                           
   691                           ;main_brazo.c: 134:         switch(dato_recibido)
   692  0199  29BE               	goto	l1484
   693  019A                     l1470:
   694                           
   695                           ;main_brazo.c: 138:                 servo1_19();
   696  019A  120A  118A  2367  120A  118A  	fcall	_servo1_19
   697                           
   698                           ;main_brazo.c: 139:                 break;
   699  019F  2965               	goto	l1454
   700  01A0                     l1472:
   701                           
   702                           ;main_brazo.c: 141:                 servo1_18();
   703  01A0  120A  118A  2330  120A  118A  	fcall	_servo1_18
   704                           
   705                           ;main_brazo.c: 142:                 break;
   706  01A5  2965               	goto	l1454
   707  01A6                     l1474:
   708                           
   709                           ;main_brazo.c: 146:                 servo2_19();
   710  01A6  120A  118A  22C2  120A  118A  	fcall	_servo2_19
   711                           
   712                           ;main_brazo.c: 147:                 break;
   713  01AB  2965               	goto	l1454
   714  01AC                     l1476:
   715                           
   716                           ;main_brazo.c: 149:                 servo2_18();
   717  01AC  120A  118A  22F9  120A  118A  	fcall	_servo2_18
   718                           
   719                           ;main_brazo.c: 150:                 break;
   720  01B1  2965               	goto	l1454
   721  01B2                     l1478:
   722                           
   723                           ;main_brazo.c: 154:                 servo3_19();
   724  01B2  120A  118A  2254  120A  118A  	fcall	_servo3_19
   725                           
   726                           ;main_brazo.c: 155:                 break;
   727  01B7  2965               	goto	l1454
   728  01B8                     l1480:
   729                           
   730                           ;main_brazo.c: 157:                 servo3_18();
   731  01B8  120A  118A  228B  120A  118A  	fcall	_servo3_18
   732                           
   733                           ;main_brazo.c: 158:                 break;
   734  01BD  2965               	goto	l1454
   735  01BE                     l1484:
   736  01BE  0874               	movf	_dato_recibido,w
   737  01BF  00AC               	movwf	??_main
   738  01C0  01AD               	clrf	??_main+1
   739                           
   740                           ; Switch on 2 bytes has been partitioned into a top level switch of size 1, and 1 sub-sw
      +                          itches
   741                           ; Switch size 1, requested type "simple"
   742                           ; Number of cases is 1, Range of values is 0 to 0
   743                           ; switch strategies available:
   744                           ; Name         Instructions Cycles
   745                           ; simple_byte            4     3 (average)
   746                           ; direct_byte           11     8 (fixed)
   747                           ; jumptable            260     6 (fixed)
   748                           ;	Chosen strategy is simple_byte
   749  01C1  082D               	movf	??_main+1,w
   750  01C2  3A00               	xorlw	0	; case 0
   751  01C3  1903               	skipnz
   752  01C4  29C6               	goto	l1510
   753  01C5  2965               	goto	l1454
   754  01C6                     l1510:
   755                           
   756                           ; Switch size 1, requested type "simple"
   757                           ; Number of cases is 6, Range of values is 50 to 97
   758                           ; switch strategies available:
   759                           ; Name         Instructions Cycles
   760                           ; simple_byte           19    10 (average)
   761                           ; direct_byte          155    11 (fixed)
   762                           ; jumptable            263     9 (fixed)
   763                           ;	Chosen strategy is simple_byte
   764  01C6  082C               	movf	??_main,w
   765  01C7  3A32               	xorlw	50	; case 50
   766  01C8  1903               	skipnz
   767  01C9  29A0               	goto	l1472
   768  01CA  3A01               	xorlw	1	; case 51
   769  01CB  1903               	skipnz
   770  01CC  29A6               	goto	l1474
   771  01CD  3A07               	xorlw	7	; case 52
   772  01CE  1903               	skipnz
   773  01CF  29AC               	goto	l1476
   774  01D0  3A01               	xorlw	1	; case 53
   775  01D1  1903               	skipnz
   776  01D2  29B2               	goto	l1478
   777  01D3  3A03               	xorlw	3	; case 54
   778  01D4  1903               	skipnz
   779  01D5  29B8               	goto	l1480
   780  01D6  3A57               	xorlw	87	; case 97
   781  01D7  1903               	skipnz
   782  01D8  299A               	goto	l1470
   783  01D9  2965               	goto	l1454
   784  01DA  120A  118A  280C   	ljmp	start
   785  01DD                     __end_of_main:
   786                           
   787                           	psect	text1
   788  01DD                     __ptext1:	
   789 ;; *************** function _setup *****************
   790 ;; Defined at:
   791 ;;		line 171 in file "main_brazo.c"
   792 ;; Parameters:    Size  Location     Type
   793 ;;		None
   794 ;; Auto vars:     Size  Location     Type
   795 ;;		None
   796 ;; Return value:  Size  Location     Type
   797 ;;                  1    wreg      void 
   798 ;; Registers used:
   799 ;;		wreg, status,2, status,0
   800 ;; Tracked objects:
   801 ;;		On entry : 0/0
   802 ;;		On exit  : 0/0
   803 ;;		Unchanged: 0/0
   804 ;; Data sizes:     COMMON   BANK0   BANK1   BANK3   BANK2
   805 ;;      Params:         0       0       0       0       0
   806 ;;      Locals:         0       0       0       0       0
   807 ;;      Temps:          1       0       0       0       0
   808 ;;      Totals:         1       0       0       0       0
   809 ;;Total ram usage:        1 bytes
   810 ;; Hardware stack levels used:    1
   811 ;; Hardware stack levels required when called:    1
   812 ;; This function calls:
   813 ;;		Nothing
   814 ;; This function is called by:
   815 ;;		_main
   816 ;; This function uses a non-reentrant model
   817 ;;
   818                           
   819                           
   820                           ;psect for function _setup
   821  01DD                     _setup:
   822  01DD                     l798:	
   823                           ;incstack = 0
   824                           ; Regs used in _setup: [wreg+status,2+status,0]
   825                           
   826                           
   827                           ;main_brazo.c: 174:     ANSELbits.ANS0 = 1;
   828  01DD  1683               	bsf	3,5	;RP0=1, select bank3
   829  01DE  1703               	bsf	3,6	;RP1=1, select bank3
   830  01DF  1408               	bsf	8,0	;volatile
   831                           
   832                           ;main_brazo.c: 175:     ANSELbits.ANS1 = 1;
   833  01E0  1488               	bsf	8,1	;volatile
   834                           
   835                           ;main_brazo.c: 176:     ANSELbits.ANS2 = 1;
   836  01E1  1508               	bsf	8,2	;volatile
   837                           
   838                           ;main_brazo.c: 178:     TRISAbits.TRISA0 = 1;
   839  01E2  1683               	bsf	3,5	;RP0=1, select bank1
   840  01E3  1303               	bcf	3,6	;RP1=0, select bank1
   841  01E4  1405               	bsf	5,0	;volatile
   842                           
   843                           ;main_brazo.c: 179:     TRISAbits.TRISA1 = 1;
   844  01E5  1485               	bsf	5,1	;volatile
   845                           
   846                           ;main_brazo.c: 180:     TRISAbits.TRISA2 = 1;
   847  01E6  1505               	bsf	5,2	;volatile
   848                           
   849                           ;main_brazo.c: 182:     TRISBbits.TRISB0 = 1;
   850  01E7  1406               	bsf	6,0	;volatile
   851                           
   852                           ;main_brazo.c: 184:     TRISCbits.TRISC1 = 0;
   853  01E8  1087               	bcf	7,1	;volatile
   854                           
   855                           ;main_brazo.c: 185:     TRISCbits.TRISC2 = 0;
   856  01E9  1107               	bcf	7,2	;volatile
   857                           
   858                           ;main_brazo.c: 187:     TRISDbits.TRISD0 = 0;
   859  01EA  1008               	bcf	8,0	;volatile
   860                           
   861                           ;main_brazo.c: 188:     TRISDbits.TRISD1 = 0;
   862  01EB  1088               	bcf	8,1	;volatile
   863                           
   864                           ;main_brazo.c: 189:     TRISDbits.TRISD2 = 0;
   865  01EC  1108               	bcf	8,2	;volatile
   866  01ED                     l800:
   867                           
   868                           ;main_brazo.c: 191:     TRISE = 0;
   869  01ED  0189               	clrf	9	;volatile
   870                           
   871                           ;main_brazo.c: 193:     PORTA = 0;
   872  01EE  1283               	bcf	3,5	;RP0=0, select bank0
   873  01EF  1303               	bcf	3,6	;RP1=0, select bank0
   874  01F0  0185               	clrf	5	;volatile
   875                           
   876                           ;main_brazo.c: 194:     PORTB = 0;
   877  01F1  0186               	clrf	6	;volatile
   878                           
   879                           ;main_brazo.c: 195:     PORTC = 0;
   880  01F2  0187               	clrf	7	;volatile
   881                           
   882                           ;main_brazo.c: 196:     PORTD = 0;
   883  01F3  0188               	clrf	8	;volatile
   884                           
   885                           ;main_brazo.c: 197:     PORTE = 0;
   886  01F4  0189               	clrf	9	;volatile
   887  01F5                     l802:
   888                           
   889                           ;main_brazo.c: 200:     OSCCONbits.IRCF2 = 1;
   890  01F5  1683               	bsf	3,5	;RP0=1, select bank1
   891  01F6  1303               	bcf	3,6	;RP1=0, select bank1
   892  01F7  170F               	bsf	15,6	;volatile
   893  01F8                     l804:
   894                           
   895                           ;main_brazo.c: 201:     OSCCONbits.IRCF1 = 1;
   896  01F8  168F               	bsf	15,5	;volatile
   897  01F9                     l806:
   898                           
   899                           ;main_brazo.c: 202:     OSCCONbits.IRCF0 = 1;
   900  01F9  160F               	bsf	15,4	;volatile
   901  01FA                     l808:
   902                           
   903                           ;main_brazo.c: 203:     OSCCONbits.SCS=1;
   904  01FA  140F               	bsf	15,0	;volatile
   905  01FB                     l810:
   906                           
   907                           ;main_brazo.c: 206:     ADCON1bits.ADFM = 0 ;
   908  01FB  139F               	bcf	31,7	;volatile
   909  01FC                     l812:
   910                           
   911                           ;main_brazo.c: 207:     ADCON1bits.VCFG0 = 0 ;
   912  01FC  121F               	bcf	31,4	;volatile
   913  01FD                     l814:
   914                           
   915                           ;main_brazo.c: 208:     ADCON1bits.VCFG1 = 0 ;
   916  01FD  129F               	bcf	31,5	;volatile
   917  01FE                     l816:
   918                           
   919                           ;main_brazo.c: 210:     ADCON0bits.ADCS = 0b10 ;
   920  01FE  1283               	bcf	3,5	;RP0=0, select bank0
   921  01FF  1303               	bcf	3,6	;RP1=0, select bank0
   922  0200  081F               	movf	31,w	;volatile
   923  0201  393F               	andlw	-193
   924  0202  3880               	iorlw	128
   925  0203  009F               	movwf	31	;volatile
   926  0204                     l818:
   927                           
   928                           ;main_brazo.c: 211:     ADCON0bits.CHS = 0;
   929  0204  30C3               	movlw	-61
   930  0205  059F               	andwf	31,f	;volatile
   931  0206                     l820:
   932                           
   933                           ;main_brazo.c: 212:     _delay((unsigned long)((50)*(8000000/4000000.0)));
   934  0206  3021               	movlw	33
   935  0207  00F9               	movwf	??_setup
   936  0208                     u607:
   937  0208  0BF9               	decfsz	??_setup,f
   938  0209  2A08               	goto	u607
   939  020A                     l822:
   940                           
   941                           ;main_brazo.c: 213:     ADCON0bits.ADON = 1 ;
   942  020A  1283               	bcf	3,5	;RP0=0, select bank0
   943  020B  1303               	bcf	3,6	;RP1=0, select bank0
   944  020C  141F               	bsf	31,0	;volatile
   945  020D                     l824:
   946                           
   947                           ;main_brazo.c: 216:     PR2 = 249;
   948  020D  30F9               	movlw	249
   949  020E  1683               	bsf	3,5	;RP0=1, select bank1
   950  020F  1303               	bcf	3,6	;RP1=0, select bank1
   951  0210  0092               	movwf	18	;volatile
   952  0211                     l826:
   953                           
   954                           ;main_brazo.c: 218:     TRISCbits.TRISC2=1;
   955  0211  1507               	bsf	7,2	;volatile
   956  0212                     l828:
   957                           
   958                           ;main_brazo.c: 219:     CCP1CONbits.P1M = 0;
   959  0212  303F               	movlw	-193
   960  0213  1283               	bcf	3,5	;RP0=0, select bank0
   961  0214  1303               	bcf	3,6	;RP1=0, select bank0
   962  0215  0597               	andwf	23,f	;volatile
   963  0216                     l830:
   964                           
   965                           ;main_brazo.c: 220:     CCP1CONbits.CCP1M = 0b1100;
   966  0216  0817               	movf	23,w	;volatile
   967  0217  39F0               	andlw	-16
   968  0218  380C               	iorlw	12
   969  0219  0097               	movwf	23	;volatile
   970  021A                     l832:
   971                           
   972                           ;main_brazo.c: 221:     CCPR1L = 0x0f ;
   973  021A  300F               	movlw	15
   974  021B  0095               	movwf	21	;volatile
   975  021C                     l834:
   976                           
   977                           ;main_brazo.c: 222:     CCP1CONbits.DC1B = 0;
   978  021C  30CF               	movlw	-49
   979  021D  0597               	andwf	23,f	;volatile
   980  021E                     l836:
   981                           
   982                           ;main_brazo.c: 224:     TRISCbits.TRISC1 = 1;
   983  021E  1683               	bsf	3,5	;RP0=1, select bank1
   984  021F  1303               	bcf	3,6	;RP1=0, select bank1
   985  0220  1487               	bsf	7,1	;volatile
   986  0221                     l838:
   987                           
   988                           ;main_brazo.c: 225:     CCP2CONbits.CCP2M = 0b1100;
   989  0221  1283               	bcf	3,5	;RP0=0, select bank0
   990  0222  1303               	bcf	3,6	;RP1=0, select bank0
   991  0223  081D               	movf	29,w	;volatile
   992  0224  39F0               	andlw	-16
   993  0225  380C               	iorlw	12
   994  0226  009D               	movwf	29	;volatile
   995  0227                     l840:
   996                           
   997                           ;main_brazo.c: 226:     CCPR2L = 0x0f;
   998  0227  300F               	movlw	15
   999  0228  009B               	movwf	27	;volatile
  1000  0229                     l842:
  1001                           
  1002                           ;main_brazo.c: 227:     CCP2CONbits.DC2B1 = 0;
  1003  0229  129D               	bcf	29,5	;volatile
  1004  022A                     l844:
  1005                           
  1006                           ;main_brazo.c: 230:     PIR1bits.TMR2IF = 0;
  1007  022A  108C               	bcf	12,1	;volatile
  1008  022B                     l846:
  1009                           
  1010                           ;main_brazo.c: 231:     T2CONbits.T2CKPS = 0b11;
  1011  022B  3003               	movlw	3
  1012  022C  0492               	iorwf	18,f	;volatile
  1013  022D                     l848:
  1014                           
  1015                           ;main_brazo.c: 232:     T2CONbits.TMR2ON = 1;
  1016  022D  1512               	bsf	18,2	;volatile
  1017  022E                     l850:
  1018                           
  1019                           ;main_brazo.c: 235:     PIR1bits.TMR2IF=0;
  1020  022E  108C               	bcf	12,1	;volatile
  1021  022F                     l852:
  1022                           
  1023                           ;main_brazo.c: 236:     TRISCbits.TRISC2 = 0;
  1024  022F  1683               	bsf	3,5	;RP0=1, select bank1
  1025  0230  1303               	bcf	3,6	;RP1=0, select bank1
  1026  0231  1107               	bcf	7,2	;volatile
  1027  0232                     l854:
  1028                           
  1029                           ;main_brazo.c: 237:     TRISCbits.TRISC1= 0;
  1030  0232  1087               	bcf	7,1	;volatile
  1031  0233                     l856:
  1032                           
  1033                           ;main_brazo.c: 241:     TXSTAbits.SYNC = 0;
  1034  0233  1218               	bcf	24,4	;volatile
  1035  0234                     l858:
  1036                           
  1037                           ;main_brazo.c: 242:     TXSTAbits.BRGH = 1;
  1038  0234  1518               	bsf	24,2	;volatile
  1039  0235                     l860:
  1040                           
  1041                           ;main_brazo.c: 243:     BAUDCTLbits.BRG16 = 1;
  1042  0235  1683               	bsf	3,5	;RP0=1, select bank3
  1043  0236  1703               	bsf	3,6	;RP1=1, select bank3
  1044  0237  1587               	bsf	7,3	;volatile
  1045  0238                     l862:
  1046                           
  1047                           ;main_brazo.c: 245:     SPBRG = 207;
  1048  0238  30CF               	movlw	207
  1049  0239  1683               	bsf	3,5	;RP0=1, select bank1
  1050  023A  1303               	bcf	3,6	;RP1=0, select bank1
  1051  023B  0099               	movwf	25	;volatile
  1052  023C                     l864:
  1053                           
  1054                           ;main_brazo.c: 246:     SPBRGH = 0;
  1055  023C  019A               	clrf	26	;volatile
  1056  023D                     l866:
  1057                           
  1058                           ;main_brazo.c: 248:     RCSTAbits.SPEN = 1;
  1059  023D  1283               	bcf	3,5	;RP0=0, select bank0
  1060  023E  1303               	bcf	3,6	;RP1=0, select bank0
  1061  023F  1798               	bsf	24,7	;volatile
  1062  0240                     l868:
  1063                           
  1064                           ;main_brazo.c: 249:     RCSTAbits.RX9 = 0;
  1065  0240  1318               	bcf	24,6	;volatile
  1066  0241                     l870:
  1067                           
  1068                           ;main_brazo.c: 251:     RCSTAbits.CREN = 1;
  1069  0241  1618               	bsf	24,4	;volatile
  1070  0242                     l872:
  1071                           
  1072                           ;main_brazo.c: 252:     TXSTAbits.TXEN = 1;
  1073  0242  1683               	bsf	3,5	;RP0=1, select bank1
  1074  0243  1303               	bcf	3,6	;RP1=0, select bank1
  1075  0244  1698               	bsf	24,5	;volatile
  1076  0245                     l874:
  1077                           
  1078                           ;main_brazo.c: 255:     INTCONbits.GIE = 1;
  1079  0245  178B               	bsf	11,7	;volatile
  1080  0246                     l876:
  1081                           
  1082                           ;main_brazo.c: 256:     INTCONbits.PEIE = 1;
  1083  0246  170B               	bsf	11,6	;volatile
  1084  0247                     l878:
  1085                           
  1086                           ;main_brazo.c: 258:     PIE1bits.ADIE = 1;
  1087  0247  170C               	bsf	12,6	;volatile
  1088  0248                     l880:
  1089                           
  1090                           ;main_brazo.c: 259:     PIR1bits.ADIF = 0;
  1091  0248  1283               	bcf	3,5	;RP0=0, select bank0
  1092  0249  1303               	bcf	3,6	;RP1=0, select bank0
  1093  024A  130C               	bcf	12,6	;volatile
  1094  024B                     l882:
  1095                           
  1096                           ;main_brazo.c: 262:     _delay((unsigned long)((100)*(8000000/4000000.0)));
  1097  024B  3042               	movlw	66
  1098  024C  00F9               	movwf	??_setup
  1099  024D                     u617:
  1100  024D  0BF9               	decfsz	??_setup,f
  1101  024E  2A4D               	goto	u617
  1102  024F  0000               	nop
  1103  0250                     l884:
  1104                           
  1105                           ;main_brazo.c: 263:     ADCON0bits.GO=1;
  1106  0250  1283               	bcf	3,5	;RP0=0, select bank0
  1107  0251  1303               	bcf	3,6	;RP1=0, select bank0
  1108  0252  149F               	bsf	31,1	;volatile
  1109  0253                     l133:
  1110  0253  0008               	return
  1111  0254                     __end_of_setup:
  1112                           
  1113                           	psect	text2
  1114  0254                     __ptext2:	
  1115 ;; *************** function _servo3_19 *****************
  1116 ;; Defined at:
  1117 ;;		line 320 in file "main_brazo.c"
  1118 ;; Parameters:    Size  Location     Type
  1119 ;;		None
  1120 ;; Auto vars:     Size  Location     Type
  1121 ;;		None
  1122 ;; Return value:  Size  Location     Type
  1123 ;;                  1    wreg      void 
  1124 ;; Registers used:
  1125 ;;		wreg, status,2, btemp+1
  1126 ;; Tracked objects:
  1127 ;;		On entry : 0/0
  1128 ;;		On exit  : 0/0
  1129 ;;		Unchanged: 0/0
  1130 ;; Data sizes:     COMMON   BANK0   BANK1   BANK3   BANK2
  1131 ;;      Params:         0       0       0       0       0
  1132 ;;      Locals:         0       0       0       0       0
  1133 ;;      Temps:          0       2       0       0       0
  1134 ;;      Totals:         0       2       0       0       0
  1135 ;;Total ram usage:        2 bytes
  1136 ;; Hardware stack levels used:    1
  1137 ;; Hardware stack levels required when called:    1
  1138 ;; This function calls:
  1139 ;;		Nothing
  1140 ;; This function is called by:
  1141 ;;		_main
  1142 ;; This function uses a non-reentrant model
  1143 ;;
  1144                           
  1145                           
  1146                           ;psect for function _servo3_19
  1147  0254                     _servo3_19:
  1148  0254                     l1428:	
  1149                           ;incstack = 0
  1150                           ; Regs used in _servo3_19: [wreg+status,2+btemp+1]
  1151                           
  1152                           
  1153                           ;main_brazo.c: 322:     for (servo3_1 = 0; servo3_1 <= 15; servo3_1++)
  1154  0254  1283               	bcf	3,5	;RP0=0, select bank0
  1155  0255  1303               	bcf	3,6	;RP1=0, select bank0
  1156  0256  01A2               	clrf	_servo3_1
  1157  0257  01A3               	clrf	_servo3_1+1
  1158  0258                     l1430:
  1159  0258  0823               	movf	_servo3_1+1,w
  1160  0259  3A80               	xorlw	128
  1161  025A  00FF               	movwf	btemp+1
  1162  025B  3080               	movlw	128
  1163  025C  027F               	subwf	btemp+1,w
  1164  025D  1D03               	skipz
  1165  025E  2A61               	goto	u575
  1166  025F  3010               	movlw	16
  1167  0260  0222               	subwf	_servo3_1,w
  1168  0261                     u575:
  1169  0261  1C03               	skipc
  1170  0262  2A64               	goto	u571
  1171  0263  2A65               	goto	u570
  1172  0264                     u571:
  1173  0264  2A66               	goto	l156
  1174  0265                     u570:
  1175  0265  2A8A               	goto	l158
  1176  0266                     l156:
  1177                           
  1178                           ;main_brazo.c: 323:         {;main_brazo.c: 324:             PORTDbits.RD2 = 1;
  1179  0266  1283               	bcf	3,5	;RP0=0, select bank0
  1180  0267  1303               	bcf	3,6	;RP1=0, select bank0
  1181  0268  1508               	bsf	8,2	;volatile
  1182  0269                     l1434:
  1183                           
  1184                           ;main_brazo.c: 325:             _delay((unsigned long)((1)*(8000000/4000.0)));
  1185  0269  3003               	movlw	3
  1186  026A  1283               	bcf	3,5	;RP0=0, select bank0
  1187  026B  1303               	bcf	3,6	;RP1=0, select bank0
  1188  026C  00AB               	movwf	??_servo3_19+1
  1189  026D  3097               	movlw	151
  1190  026E  00AA               	movwf	??_servo3_19
  1191  026F                     u627:
  1192  026F  0BAA               	decfsz	??_servo3_19,f
  1193  0270  2A6F               	goto	u627
  1194  0271  0BAB               	decfsz	??_servo3_19+1,f
  1195  0272  2A6F               	goto	u627
  1196  0273                     l1436:
  1197                           
  1198                           ;main_brazo.c: 326:             PORTDbits.RD2 = 0;
  1199  0273  1283               	bcf	3,5	;RP0=0, select bank0
  1200  0274  1303               	bcf	3,6	;RP1=0, select bank0
  1201  0275  1108               	bcf	8,2	;volatile
  1202                           
  1203                           ;main_brazo.c: 327:             _delay((unsigned long)((19)*(8000000/4000.0)));
  1204  0276  3032               	movlw	50
  1205  0277  1283               	bcf	3,5	;RP0=0, select bank0
  1206  0278  1303               	bcf	3,6	;RP1=0, select bank0
  1207  0279  00AB               	movwf	??_servo3_19+1
  1208  027A  3057               	movlw	87
  1209  027B  00AA               	movwf	??_servo3_19
  1210  027C                     u637:
  1211  027C  0BAA               	decfsz	??_servo3_19,f
  1212  027D  2A7C               	goto	u637
  1213  027E  0BAB               	decfsz	??_servo3_19+1,f
  1214  027F  2A7C               	goto	u637
  1215  0280  2A81               	nop2
  1216                           
  1217                           ;main_brazo.c: 328:         }
  1218  0281  3001               	movlw	1
  1219  0282  1283               	bcf	3,5	;RP0=0, select bank0
  1220  0283  1303               	bcf	3,6	;RP1=0, select bank0
  1221  0284  07A2               	addwf	_servo3_1,f
  1222  0285  1803               	skipnc
  1223  0286  0AA3               	incf	_servo3_1+1,f
  1224  0287  3000               	movlw	0
  1225  0288  07A3               	addwf	_servo3_1+1,f
  1226  0289  2A58               	goto	l1430
  1227  028A                     l158:
  1228  028A  0008               	return
  1229  028B                     __end_of_servo3_19:
  1230                           
  1231                           	psect	text3
  1232  028B                     __ptext3:	
  1233 ;; *************** function _servo3_18 *****************
  1234 ;; Defined at:
  1235 ;;		line 332 in file "main_brazo.c"
  1236 ;; Parameters:    Size  Location     Type
  1237 ;;		None
  1238 ;; Auto vars:     Size  Location     Type
  1239 ;;		None
  1240 ;; Return value:  Size  Location     Type
  1241 ;;                  1    wreg      void 
  1242 ;; Registers used:
  1243 ;;		wreg, status,2, btemp+1
  1244 ;; Tracked objects:
  1245 ;;		On entry : 0/0
  1246 ;;		On exit  : 0/0
  1247 ;;		Unchanged: 0/0
  1248 ;; Data sizes:     COMMON   BANK0   BANK1   BANK3   BANK2
  1249 ;;      Params:         0       0       0       0       0
  1250 ;;      Locals:         0       0       0       0       0
  1251 ;;      Temps:          0       2       0       0       0
  1252 ;;      Totals:         0       2       0       0       0
  1253 ;;Total ram usage:        2 bytes
  1254 ;; Hardware stack levels used:    1
  1255 ;; Hardware stack levels required when called:    1
  1256 ;; This function calls:
  1257 ;;		Nothing
  1258 ;; This function is called by:
  1259 ;;		_main
  1260 ;; This function uses a non-reentrant model
  1261 ;;
  1262                           
  1263                           
  1264                           ;psect for function _servo3_18
  1265  028B                     _servo3_18:
  1266  028B                     l1440:	
  1267                           ;incstack = 0
  1268                           ; Regs used in _servo3_18: [wreg+status,2+btemp+1]
  1269                           
  1270                           
  1271                           ;main_brazo.c: 334:     for (servo3_2 = 0; servo3_2 <= 15; servo3_2++)
  1272  028B  1283               	bcf	3,5	;RP0=0, select bank0
  1273  028C  1303               	bcf	3,6	;RP1=0, select bank0
  1274  028D  01A0               	clrf	_servo3_2
  1275  028E  01A1               	clrf	_servo3_2+1
  1276  028F                     l1442:
  1277  028F  0821               	movf	_servo3_2+1,w
  1278  0290  3A80               	xorlw	128
  1279  0291  00FF               	movwf	btemp+1
  1280  0292  3080               	movlw	128
  1281  0293  027F               	subwf	btemp+1,w
  1282  0294  1D03               	skipz
  1283  0295  2A98               	goto	u585
  1284  0296  3010               	movlw	16
  1285  0297  0220               	subwf	_servo3_2,w
  1286  0298                     u585:
  1287  0298  1C03               	skipc
  1288  0299  2A9B               	goto	u581
  1289  029A  2A9C               	goto	u580
  1290  029B                     u581:
  1291  029B  2A9D               	goto	l161
  1292  029C                     u580:
  1293  029C  2AC1               	goto	l163
  1294  029D                     l161:
  1295                           
  1296                           ;main_brazo.c: 335:         {;main_brazo.c: 336:             PORTDbits.RD2 = 1;
  1297  029D  1283               	bcf	3,5	;RP0=0, select bank0
  1298  029E  1303               	bcf	3,6	;RP1=0, select bank0
  1299  029F  1508               	bsf	8,2	;volatile
  1300  02A0                     l1446:
  1301                           
  1302                           ;main_brazo.c: 337:             _delay((unsigned long)((1.5)*(8000000/4000.0)));
  1303  02A0  3004               	movlw	4
  1304  02A1  1283               	bcf	3,5	;RP0=0, select bank0
  1305  02A2  1303               	bcf	3,6	;RP1=0, select bank0
  1306  02A3  00AB               	movwf	??_servo3_18+1
  1307  02A4  30E3               	movlw	227
  1308  02A5  00AA               	movwf	??_servo3_18
  1309  02A6                     u647:
  1310  02A6  0BAA               	decfsz	??_servo3_18,f
  1311  02A7  2AA6               	goto	u647
  1312  02A8  0BAB               	decfsz	??_servo3_18+1,f
  1313  02A9  2AA6               	goto	u647
  1314  02AA  2AAB               	nop2
  1315  02AB                     l1448:
  1316                           
  1317                           ;main_brazo.c: 338:             PORTDbits.RD2 = 0;
  1318  02AB  1283               	bcf	3,5	;RP0=0, select bank0
  1319  02AC  1303               	bcf	3,6	;RP1=0, select bank0
  1320  02AD  1108               	bcf	8,2	;volatile
  1321                           
  1322                           ;main_brazo.c: 339:             _delay((unsigned long)((18.5)*(8000000/4000.0)));
  1323  02AE  3031               	movlw	49
  1324  02AF  1283               	bcf	3,5	;RP0=0, select bank0
  1325  02B0  1303               	bcf	3,6	;RP1=0, select bank0
  1326  02B1  00AB               	movwf	??_servo3_18+1
  1327  02B2  300B               	movlw	11
  1328  02B3  00AA               	movwf	??_servo3_18
  1329  02B4                     u657:
  1330  02B4  0BAA               	decfsz	??_servo3_18,f
  1331  02B5  2AB4               	goto	u657
  1332  02B6  0BAB               	decfsz	??_servo3_18+1,f
  1333  02B7  2AB4               	goto	u657
  1334                           
  1335                           ;main_brazo.c: 340:         }
  1336  02B8  3001               	movlw	1
  1337  02B9  1283               	bcf	3,5	;RP0=0, select bank0
  1338  02BA  1303               	bcf	3,6	;RP1=0, select bank0
  1339  02BB  07A0               	addwf	_servo3_2,f
  1340  02BC  1803               	skipnc
  1341  02BD  0AA1               	incf	_servo3_2+1,f
  1342  02BE  3000               	movlw	0
  1343  02BF  07A1               	addwf	_servo3_2+1,f
  1344  02C0  2A8F               	goto	l1442
  1345  02C1                     l163:
  1346  02C1  0008               	return
  1347  02C2                     __end_of_servo3_18:
  1348                           
  1349                           	psect	text4
  1350  02C2                     __ptext4:	
  1351 ;; *************** function _servo2_19 *****************
  1352 ;; Defined at:
  1353 ;;		line 296 in file "main_brazo.c"
  1354 ;; Parameters:    Size  Location     Type
  1355 ;;		None
  1356 ;; Auto vars:     Size  Location     Type
  1357 ;;		None
  1358 ;; Return value:  Size  Location     Type
  1359 ;;                  1    wreg      void 
  1360 ;; Registers used:
  1361 ;;		wreg, status,2, btemp+1
  1362 ;; Tracked objects:
  1363 ;;		On entry : 0/0
  1364 ;;		On exit  : 0/0
  1365 ;;		Unchanged: 0/0
  1366 ;; Data sizes:     COMMON   BANK0   BANK1   BANK3   BANK2
  1367 ;;      Params:         0       0       0       0       0
  1368 ;;      Locals:         0       0       0       0       0
  1369 ;;      Temps:          0       2       0       0       0
  1370 ;;      Totals:         0       2       0       0       0
  1371 ;;Total ram usage:        2 bytes
  1372 ;; Hardware stack levels used:    1
  1373 ;; Hardware stack levels required when called:    1
  1374 ;; This function calls:
  1375 ;;		Nothing
  1376 ;; This function is called by:
  1377 ;;		_main
  1378 ;; This function uses a non-reentrant model
  1379 ;;
  1380                           
  1381                           
  1382                           ;psect for function _servo2_19
  1383  02C2                     _servo2_19:
  1384  02C2                     l1404:	
  1385                           ;incstack = 0
  1386                           ; Regs used in _servo2_19: [wreg+status,2+btemp+1]
  1387                           
  1388                           
  1389                           ;main_brazo.c: 298:     for (servo2_1 = 0; servo2_1 <= 15; servo2_1++)
  1390  02C2  1283               	bcf	3,5	;RP0=0, select bank0
  1391  02C3  1303               	bcf	3,6	;RP1=0, select bank0
  1392  02C4  01A6               	clrf	_servo2_1
  1393  02C5  01A7               	clrf	_servo2_1+1
  1394  02C6                     l1406:
  1395  02C6  0827               	movf	_servo2_1+1,w
  1396  02C7  3A80               	xorlw	128
  1397  02C8  00FF               	movwf	btemp+1
  1398  02C9  3080               	movlw	128
  1399  02CA  027F               	subwf	btemp+1,w
  1400  02CB  1D03               	skipz
  1401  02CC  2ACF               	goto	u555
  1402  02CD  3010               	movlw	16
  1403  02CE  0226               	subwf	_servo2_1,w
  1404  02CF                     u555:
  1405  02CF  1C03               	skipc
  1406  02D0  2AD2               	goto	u551
  1407  02D1  2AD3               	goto	u550
  1408  02D2                     u551:
  1409  02D2  2AD4               	goto	l146
  1410  02D3                     u550:
  1411  02D3  2AF8               	goto	l148
  1412  02D4                     l146:
  1413                           
  1414                           ;main_brazo.c: 299:         {;main_brazo.c: 300:             PORTDbits.RD1 = 1;
  1415  02D4  1283               	bcf	3,5	;RP0=0, select bank0
  1416  02D5  1303               	bcf	3,6	;RP1=0, select bank0
  1417  02D6  1488               	bsf	8,1	;volatile
  1418  02D7                     l1410:
  1419                           
  1420                           ;main_brazo.c: 301:             _delay((unsigned long)((1)*(8000000/4000.0)));
  1421  02D7  3003               	movlw	3
  1422  02D8  1283               	bcf	3,5	;RP0=0, select bank0
  1423  02D9  1303               	bcf	3,6	;RP1=0, select bank0
  1424  02DA  00AB               	movwf	??_servo2_19+1
  1425  02DB  3097               	movlw	151
  1426  02DC  00AA               	movwf	??_servo2_19
  1427  02DD                     u667:
  1428  02DD  0BAA               	decfsz	??_servo2_19,f
  1429  02DE  2ADD               	goto	u667
  1430  02DF  0BAB               	decfsz	??_servo2_19+1,f
  1431  02E0  2ADD               	goto	u667
  1432  02E1                     l1412:
  1433                           
  1434                           ;main_brazo.c: 302:             PORTDbits.RD1 = 0;
  1435  02E1  1283               	bcf	3,5	;RP0=0, select bank0
  1436  02E2  1303               	bcf	3,6	;RP1=0, select bank0
  1437  02E3  1088               	bcf	8,1	;volatile
  1438                           
  1439                           ;main_brazo.c: 303:             _delay((unsigned long)((19)*(8000000/4000.0)));
  1440  02E4  3032               	movlw	50
  1441  02E5  1283               	bcf	3,5	;RP0=0, select bank0
  1442  02E6  1303               	bcf	3,6	;RP1=0, select bank0
  1443  02E7  00AB               	movwf	??_servo2_19+1
  1444  02E8  3057               	movlw	87
  1445  02E9  00AA               	movwf	??_servo2_19
  1446  02EA                     u677:
  1447  02EA  0BAA               	decfsz	??_servo2_19,f
  1448  02EB  2AEA               	goto	u677
  1449  02EC  0BAB               	decfsz	??_servo2_19+1,f
  1450  02ED  2AEA               	goto	u677
  1451  02EE  2AEF               	nop2
  1452                           
  1453                           ;main_brazo.c: 304:         }
  1454  02EF  3001               	movlw	1
  1455  02F0  1283               	bcf	3,5	;RP0=0, select bank0
  1456  02F1  1303               	bcf	3,6	;RP1=0, select bank0
  1457  02F2  07A6               	addwf	_servo2_1,f
  1458  02F3  1803               	skipnc
  1459  02F4  0AA7               	incf	_servo2_1+1,f
  1460  02F5  3000               	movlw	0
  1461  02F6  07A7               	addwf	_servo2_1+1,f
  1462  02F7  2AC6               	goto	l1406
  1463  02F8                     l148:
  1464  02F8  0008               	return
  1465  02F9                     __end_of_servo2_19:
  1466                           
  1467                           	psect	text5
  1468  02F9                     __ptext5:	
  1469 ;; *************** function _servo2_18 *****************
  1470 ;; Defined at:
  1471 ;;		line 308 in file "main_brazo.c"
  1472 ;; Parameters:    Size  Location     Type
  1473 ;;		None
  1474 ;; Auto vars:     Size  Location     Type
  1475 ;;		None
  1476 ;; Return value:  Size  Location     Type
  1477 ;;                  1    wreg      void 
  1478 ;; Registers used:
  1479 ;;		wreg, status,2, btemp+1
  1480 ;; Tracked objects:
  1481 ;;		On entry : 0/0
  1482 ;;		On exit  : 0/0
  1483 ;;		Unchanged: 0/0
  1484 ;; Data sizes:     COMMON   BANK0   BANK1   BANK3   BANK2
  1485 ;;      Params:         0       0       0       0       0
  1486 ;;      Locals:         0       0       0       0       0
  1487 ;;      Temps:          0       2       0       0       0
  1488 ;;      Totals:         0       2       0       0       0
  1489 ;;Total ram usage:        2 bytes
  1490 ;; Hardware stack levels used:    1
  1491 ;; Hardware stack levels required when called:    1
  1492 ;; This function calls:
  1493 ;;		Nothing
  1494 ;; This function is called by:
  1495 ;;		_main
  1496 ;; This function uses a non-reentrant model
  1497 ;;
  1498                           
  1499                           
  1500                           ;psect for function _servo2_18
  1501  02F9                     _servo2_18:
  1502  02F9                     l1416:	
  1503                           ;incstack = 0
  1504                           ; Regs used in _servo2_18: [wreg+status,2+btemp+1]
  1505                           
  1506                           
  1507                           ;main_brazo.c: 310:     for (servo2_2 = 0; servo2_2 <= 15; servo2_2++)
  1508  02F9  1283               	bcf	3,5	;RP0=0, select bank0
  1509  02FA  1303               	bcf	3,6	;RP1=0, select bank0
  1510  02FB  01A4               	clrf	_servo2_2
  1511  02FC  01A5               	clrf	_servo2_2+1
  1512  02FD                     l1418:
  1513  02FD  0825               	movf	_servo2_2+1,w
  1514  02FE  3A80               	xorlw	128
  1515  02FF  00FF               	movwf	btemp+1
  1516  0300  3080               	movlw	128
  1517  0301  027F               	subwf	btemp+1,w
  1518  0302  1D03               	skipz
  1519  0303  2B06               	goto	u565
  1520  0304  3010               	movlw	16
  1521  0305  0224               	subwf	_servo2_2,w
  1522  0306                     u565:
  1523  0306  1C03               	skipc
  1524  0307  2B09               	goto	u561
  1525  0308  2B0A               	goto	u560
  1526  0309                     u561:
  1527  0309  2B0B               	goto	l151
  1528  030A                     u560:
  1529  030A  2B2F               	goto	l153
  1530  030B                     l151:
  1531                           
  1532                           ;main_brazo.c: 311:         {;main_brazo.c: 312:             PORTDbits.RD1 = 1;
  1533  030B  1283               	bcf	3,5	;RP0=0, select bank0
  1534  030C  1303               	bcf	3,6	;RP1=0, select bank0
  1535  030D  1488               	bsf	8,1	;volatile
  1536  030E                     l1422:
  1537                           
  1538                           ;main_brazo.c: 313:             _delay((unsigned long)((1.5)*(8000000/4000.0)));
  1539  030E  3004               	movlw	4
  1540  030F  1283               	bcf	3,5	;RP0=0, select bank0
  1541  0310  1303               	bcf	3,6	;RP1=0, select bank0
  1542  0311  00AB               	movwf	??_servo2_18+1
  1543  0312  30E3               	movlw	227
  1544  0313  00AA               	movwf	??_servo2_18
  1545  0314                     u687:
  1546  0314  0BAA               	decfsz	??_servo2_18,f
  1547  0315  2B14               	goto	u687
  1548  0316  0BAB               	decfsz	??_servo2_18+1,f
  1549  0317  2B14               	goto	u687
  1550  0318  2B19               	nop2
  1551  0319                     l1424:
  1552                           
  1553                           ;main_brazo.c: 314:             PORTDbits.RD1 = 0;
  1554  0319  1283               	bcf	3,5	;RP0=0, select bank0
  1555  031A  1303               	bcf	3,6	;RP1=0, select bank0
  1556  031B  1088               	bcf	8,1	;volatile
  1557                           
  1558                           ;main_brazo.c: 315:             _delay((unsigned long)((18.5)*(8000000/4000.0)));
  1559  031C  3031               	movlw	49
  1560  031D  1283               	bcf	3,5	;RP0=0, select bank0
  1561  031E  1303               	bcf	3,6	;RP1=0, select bank0
  1562  031F  00AB               	movwf	??_servo2_18+1
  1563  0320  300B               	movlw	11
  1564  0321  00AA               	movwf	??_servo2_18
  1565  0322                     u697:
  1566  0322  0BAA               	decfsz	??_servo2_18,f
  1567  0323  2B22               	goto	u697
  1568  0324  0BAB               	decfsz	??_servo2_18+1,f
  1569  0325  2B22               	goto	u697
  1570                           
  1571                           ;main_brazo.c: 316:         }
  1572  0326  3001               	movlw	1
  1573  0327  1283               	bcf	3,5	;RP0=0, select bank0
  1574  0328  1303               	bcf	3,6	;RP1=0, select bank0
  1575  0329  07A4               	addwf	_servo2_2,f
  1576  032A  1803               	skipnc
  1577  032B  0AA5               	incf	_servo2_2+1,f
  1578  032C  3000               	movlw	0
  1579  032D  07A5               	addwf	_servo2_2+1,f
  1580  032E  2AFD               	goto	l1418
  1581  032F                     l153:
  1582  032F  0008               	return
  1583  0330                     __end_of_servo2_18:
  1584                           
  1585                           	psect	text6
  1586  0367                     __ptext6:	
  1587 ;; *************** function _servo1_19 *****************
  1588 ;; Defined at:
  1589 ;;		line 271 in file "main_brazo.c"
  1590 ;; Parameters:    Size  Location     Type
  1591 ;;		None
  1592 ;; Auto vars:     Size  Location     Type
  1593 ;;		None
  1594 ;; Return value:  Size  Location     Type
  1595 ;;                  1    wreg      void 
  1596 ;; Registers used:
  1597 ;;		wreg, status,2, btemp+1
  1598 ;; Tracked objects:
  1599 ;;		On entry : 0/0
  1600 ;;		On exit  : 0/0
  1601 ;;		Unchanged: 0/0
  1602 ;; Data sizes:     COMMON   BANK0   BANK1   BANK3   BANK2
  1603 ;;      Params:         0       0       0       0       0
  1604 ;;      Locals:         0       0       0       0       0
  1605 ;;      Temps:          0       2       0       0       0
  1606 ;;      Totals:         0       2       0       0       0
  1607 ;;Total ram usage:        2 bytes
  1608 ;; Hardware stack levels used:    1
  1609 ;; Hardware stack levels required when called:    1
  1610 ;; This function calls:
  1611 ;;		Nothing
  1612 ;; This function is called by:
  1613 ;;		_main
  1614 ;; This function uses a non-reentrant model
  1615 ;;
  1616                           
  1617                           
  1618                           ;psect for function _servo1_19
  1619  0367                     _servo1_19:
  1620  0367                     l1380:	
  1621                           ;incstack = 0
  1622                           ; Regs used in _servo1_19: [wreg+status,2+btemp+1]
  1623                           
  1624                           
  1625                           ;main_brazo.c: 273:     for (servo1_1 = 0; servo1_1 <= 15; servo1_1++)
  1626  0367  01F0               	clrf	_servo1_1
  1627  0368  01F1               	clrf	_servo1_1+1
  1628  0369                     l1382:
  1629  0369  0871               	movf	_servo1_1+1,w
  1630  036A  3A80               	xorlw	128
  1631  036B  00FF               	movwf	btemp+1
  1632  036C  3080               	movlw	128
  1633  036D  027F               	subwf	btemp+1,w
  1634  036E  1D03               	skipz
  1635  036F  2B72               	goto	u535
  1636  0370  3010               	movlw	16
  1637  0371  0270               	subwf	_servo1_1,w
  1638  0372                     u535:
  1639  0372  1C03               	skipc
  1640  0373  2B75               	goto	u531
  1641  0374  2B76               	goto	u530
  1642  0375                     u531:
  1643  0375  2B77               	goto	l136
  1644  0376                     u530:
  1645  0376  2B99               	goto	l138
  1646  0377                     l136:
  1647                           
  1648                           ;main_brazo.c: 274:         {;main_brazo.c: 275:             PORTDbits.RD0 = 1;
  1649  0377  1283               	bcf	3,5	;RP0=0, select bank0
  1650  0378  1303               	bcf	3,6	;RP1=0, select bank0
  1651  0379  1408               	bsf	8,0	;volatile
  1652  037A                     l1386:
  1653                           
  1654                           ;main_brazo.c: 276:             _delay((unsigned long)((1)*(8000000/4000.0)));
  1655  037A  3003               	movlw	3
  1656  037B  1283               	bcf	3,5	;RP0=0, select bank0
  1657  037C  1303               	bcf	3,6	;RP1=0, select bank0
  1658  037D  00AB               	movwf	??_servo1_19+1
  1659  037E  3097               	movlw	151
  1660  037F  00AA               	movwf	??_servo1_19
  1661  0380                     u707:
  1662  0380  0BAA               	decfsz	??_servo1_19,f
  1663  0381  2B80               	goto	u707
  1664  0382  0BAB               	decfsz	??_servo1_19+1,f
  1665  0383  2B80               	goto	u707
  1666  0384                     l1388:
  1667                           
  1668                           ;main_brazo.c: 277:             PORTDbits.RD0 = 0;
  1669  0384  1283               	bcf	3,5	;RP0=0, select bank0
  1670  0385  1303               	bcf	3,6	;RP1=0, select bank0
  1671  0386  1008               	bcf	8,0	;volatile
  1672                           
  1673                           ;main_brazo.c: 278:             _delay((unsigned long)((19)*(8000000/4000.0)));
  1674  0387  3032               	movlw	50
  1675  0388  1283               	bcf	3,5	;RP0=0, select bank0
  1676  0389  1303               	bcf	3,6	;RP1=0, select bank0
  1677  038A  00AB               	movwf	??_servo1_19+1
  1678  038B  3057               	movlw	87
  1679  038C  00AA               	movwf	??_servo1_19
  1680  038D                     u717:
  1681  038D  0BAA               	decfsz	??_servo1_19,f
  1682  038E  2B8D               	goto	u717
  1683  038F  0BAB               	decfsz	??_servo1_19+1,f
  1684  0390  2B8D               	goto	u717
  1685  0391  2B92               	nop2
  1686                           
  1687                           ;main_brazo.c: 279:         }
  1688  0392  3001               	movlw	1
  1689  0393  07F0               	addwf	_servo1_1,f
  1690  0394  1803               	skipnc
  1691  0395  0AF1               	incf	_servo1_1+1,f
  1692  0396  3000               	movlw	0
  1693  0397  07F1               	addwf	_servo1_1+1,f
  1694  0398  2B69               	goto	l1382
  1695  0399                     l138:
  1696  0399  0008               	return
  1697  039A                     __end_of_servo1_19:
  1698                           
  1699                           	psect	text7
  1700  0330                     __ptext7:	
  1701 ;; *************** function _servo1_18 *****************
  1702 ;; Defined at:
  1703 ;;		line 283 in file "main_brazo.c"
  1704 ;; Parameters:    Size  Location     Type
  1705 ;;		None
  1706 ;; Auto vars:     Size  Location     Type
  1707 ;;		None
  1708 ;; Return value:  Size  Location     Type
  1709 ;;                  1    wreg      void 
  1710 ;; Registers used:
  1711 ;;		wreg, status,2, btemp+1
  1712 ;; Tracked objects:
  1713 ;;		On entry : 0/0
  1714 ;;		On exit  : 0/0
  1715 ;;		Unchanged: 0/0
  1716 ;; Data sizes:     COMMON   BANK0   BANK1   BANK3   BANK2
  1717 ;;      Params:         0       0       0       0       0
  1718 ;;      Locals:         0       0       0       0       0
  1719 ;;      Temps:          0       2       0       0       0
  1720 ;;      Totals:         0       2       0       0       0
  1721 ;;Total ram usage:        2 bytes
  1722 ;; Hardware stack levels used:    1
  1723 ;; Hardware stack levels required when called:    1
  1724 ;; This function calls:
  1725 ;;		Nothing
  1726 ;; This function is called by:
  1727 ;;		_main
  1728 ;; This function uses a non-reentrant model
  1729 ;;
  1730                           
  1731                           
  1732                           ;psect for function _servo1_18
  1733  0330                     _servo1_18:
  1734  0330                     l1392:	
  1735                           ;incstack = 0
  1736                           ; Regs used in _servo1_18: [wreg+status,2+btemp+1]
  1737                           
  1738                           
  1739                           ;main_brazo.c: 285:     for (servo1_2 = 0; servo1_2 <= 15; servo1_2++)
  1740  0330  1283               	bcf	3,5	;RP0=0, select bank0
  1741  0331  1303               	bcf	3,6	;RP1=0, select bank0
  1742  0332  01A8               	clrf	_servo1_2
  1743  0333  01A9               	clrf	_servo1_2+1
  1744  0334                     l1394:
  1745  0334  0829               	movf	_servo1_2+1,w
  1746  0335  3A80               	xorlw	128
  1747  0336  00FF               	movwf	btemp+1
  1748  0337  3080               	movlw	128
  1749  0338  027F               	subwf	btemp+1,w
  1750  0339  1D03               	skipz
  1751  033A  2B3D               	goto	u545
  1752  033B  3010               	movlw	16
  1753  033C  0228               	subwf	_servo1_2,w
  1754  033D                     u545:
  1755  033D  1C03               	skipc
  1756  033E  2B40               	goto	u541
  1757  033F  2B41               	goto	u540
  1758  0340                     u541:
  1759  0340  2B42               	goto	l141
  1760  0341                     u540:
  1761  0341  2B66               	goto	l143
  1762  0342                     l141:
  1763                           
  1764                           ;main_brazo.c: 286:         {;main_brazo.c: 287:             PORTDbits.RD0 = 1;
  1765  0342  1283               	bcf	3,5	;RP0=0, select bank0
  1766  0343  1303               	bcf	3,6	;RP1=0, select bank0
  1767  0344  1408               	bsf	8,0	;volatile
  1768  0345                     l1398:
  1769                           
  1770                           ;main_brazo.c: 288:             _delay((unsigned long)((1.5)*(8000000/4000.0)));
  1771  0345  3004               	movlw	4
  1772  0346  1283               	bcf	3,5	;RP0=0, select bank0
  1773  0347  1303               	bcf	3,6	;RP1=0, select bank0
  1774  0348  00AB               	movwf	??_servo1_18+1
  1775  0349  30E3               	movlw	227
  1776  034A  00AA               	movwf	??_servo1_18
  1777  034B                     u727:
  1778  034B  0BAA               	decfsz	??_servo1_18,f
  1779  034C  2B4B               	goto	u727
  1780  034D  0BAB               	decfsz	??_servo1_18+1,f
  1781  034E  2B4B               	goto	u727
  1782  034F  2B50               	nop2
  1783  0350                     l1400:
  1784                           
  1785                           ;main_brazo.c: 289:             PORTDbits.RD0 = 0;
  1786  0350  1283               	bcf	3,5	;RP0=0, select bank0
  1787  0351  1303               	bcf	3,6	;RP1=0, select bank0
  1788  0352  1008               	bcf	8,0	;volatile
  1789                           
  1790                           ;main_brazo.c: 290:             _delay((unsigned long)((18.5)*(8000000/4000.0)));
  1791  0353  3031               	movlw	49
  1792  0354  1283               	bcf	3,5	;RP0=0, select bank0
  1793  0355  1303               	bcf	3,6	;RP1=0, select bank0
  1794  0356  00AB               	movwf	??_servo1_18+1
  1795  0357  300B               	movlw	11
  1796  0358  00AA               	movwf	??_servo1_18
  1797  0359                     u737:
  1798  0359  0BAA               	decfsz	??_servo1_18,f
  1799  035A  2B59               	goto	u737
  1800  035B  0BAB               	decfsz	??_servo1_18+1,f
  1801  035C  2B59               	goto	u737
  1802                           
  1803                           ;main_brazo.c: 291:         }
  1804  035D  3001               	movlw	1
  1805  035E  1283               	bcf	3,5	;RP0=0, select bank0
  1806  035F  1303               	bcf	3,6	;RP1=0, select bank0
  1807  0360  07A8               	addwf	_servo1_2,f
  1808  0361  1803               	skipnc
  1809  0362  0AA9               	incf	_servo1_2+1,f
  1810  0363  3000               	movlw	0
  1811  0364  07A9               	addwf	_servo1_2+1,f
  1812  0365  2B34               	goto	l1394
  1813  0366                     l143:
  1814  0366  0008               	return
  1815  0367                     __end_of_servo1_18:
  1816                           
  1817                           	psect	text8
  1818  039A                     __ptext8:	
  1819 ;; *************** function _USART_Cadena *****************
  1820 ;; Defined at:
  1821 ;;		line 356 in file "main_brazo.c"
  1822 ;; Parameters:    Size  Location     Type
  1823 ;;  str             1    wreg     PTR unsigned char 
  1824 ;;		 -> STR_7(24), STR_6(23), STR_5(24), STR_4(23), 
  1825 ;;		 -> STR_3(24), STR_2(23), STR_1(31), 
  1826 ;; Auto vars:     Size  Location     Type
  1827 ;;  str             1    1[BANK0 ] PTR unsigned char 
  1828 ;;		 -> STR_7(24), STR_6(23), STR_5(24), STR_4(23), 
  1829 ;;		 -> STR_3(24), STR_2(23), STR_1(31), 
  1830 ;; Return value:  Size  Location     Type
  1831 ;;                  1    wreg      void 
  1832 ;; Registers used:
  1833 ;;		wreg, fsr0l, fsr0h, status,2, status,0, pclath, cstack
  1834 ;; Tracked objects:
  1835 ;;		On entry : 0/0
  1836 ;;		On exit  : 0/0
  1837 ;;		Unchanged: 0/0
  1838 ;; Data sizes:     COMMON   BANK0   BANK1   BANK3   BANK2
  1839 ;;      Params:         0       0       0       0       0
  1840 ;;      Locals:         0       1       0       0       0
  1841 ;;      Temps:          0       1       0       0       0
  1842 ;;      Totals:         0       2       0       0       0
  1843 ;;Total ram usage:        2 bytes
  1844 ;; Hardware stack levels used:    1
  1845 ;; Hardware stack levels required when called:    2
  1846 ;; This function calls:
  1847 ;;		_transmision_tx
  1848 ;; This function is called by:
  1849 ;;		_main
  1850 ;; This function uses a non-reentrant model
  1851 ;;
  1852                           
  1853                           
  1854                           ;psect for function _USART_Cadena
  1855  039A                     _USART_Cadena:
  1856                           
  1857                           ;incstack = 0
  1858                           ; Regs used in _USART_Cadena: [wreg-fsr0h+status,2+status,0+pclath+cstack]
  1859                           ;USART_Cadena@str stored from wreg
  1860  039A  1283               	bcf	3,5	;RP0=0, select bank0
  1861  039B  1303               	bcf	3,6	;RP1=0, select bank0
  1862  039C  00AB               	movwf	USART_Cadena@str
  1863  039D                     l1372:
  1864                           
  1865                           ;main_brazo.c: 356: void USART_Cadena(char *str);main_brazo.c: 357: {;main_brazo.c: 358:
      +                                   while(*str != '\0')
  1866  039D  2BB0               	goto	l1378
  1867  039E                     l1374:
  1868                           
  1869                           ;main_brazo.c: 359:         {;main_brazo.c: 360:             transmision_tx(*str);
  1870  039E  082B               	movf	USART_Cadena@str,w
  1871  039F  0084               	movwf	4
  1872  03A0  120A  118A  202A  120A  118A  	fcall	stringdir
  1873  03A5  120A  118A  23BD  120A  118A  	fcall	_transmision_tx
  1874  03AA                     l1376:
  1875                           
  1876                           ;main_brazo.c: 361:             str++;
  1877  03AA  3001               	movlw	1
  1878  03AB  1283               	bcf	3,5	;RP0=0, select bank0
  1879  03AC  1303               	bcf	3,6	;RP1=0, select bank0
  1880  03AD  00AA               	movwf	??_USART_Cadena
  1881  03AE  082A               	movf	??_USART_Cadena,w
  1882  03AF  07AB               	addwf	USART_Cadena@str,f
  1883  03B0                     l1378:
  1884                           
  1885                           ;main_brazo.c: 358:         while(*str != '\0')
  1886  03B0  082B               	movf	USART_Cadena@str,w
  1887  03B1  0084               	movwf	4
  1888  03B2  120A  118A  202A  120A  118A  	fcall	stringdir
  1889  03B7  3A00               	xorlw	0
  1890  03B8  1D03               	skipz
  1891  03B9  2BBB               	goto	u521
  1892  03BA  2BBC               	goto	u520
  1893  03BB                     u521:
  1894  03BB  2B9E               	goto	l1374
  1895  03BC                     u520:
  1896  03BC                     l178:
  1897  03BC  0008               	return
  1898  03BD                     __end_of_USART_Cadena:
  1899                           
  1900                           	psect	text9
  1901  03BD                     __ptext9:	
  1902 ;; *************** function _transmision_tx *****************
  1903 ;; Defined at:
  1904 ;;		line 350 in file "main_brazo.c"
  1905 ;; Parameters:    Size  Location     Type
  1906 ;;  data            1    wreg     unsigned char 
  1907 ;; Auto vars:     Size  Location     Type
  1908 ;;  data            1    4[COMMON] unsigned char 
  1909 ;; Return value:  Size  Location     Type
  1910 ;;                  1    wreg      void 
  1911 ;; Registers used:
  1912 ;;		wreg
  1913 ;; Tracked objects:
  1914 ;;		On entry : 0/0
  1915 ;;		On exit  : 0/0
  1916 ;;		Unchanged: 0/0
  1917 ;; Data sizes:     COMMON   BANK0   BANK1   BANK3   BANK2
  1918 ;;      Params:         0       0       0       0       0
  1919 ;;      Locals:         1       0       0       0       0
  1920 ;;      Temps:          0       0       0       0       0
  1921 ;;      Totals:         1       0       0       0       0
  1922 ;;Total ram usage:        1 bytes
  1923 ;; Hardware stack levels used:    1
  1924 ;; Hardware stack levels required when called:    1
  1925 ;; This function calls:
  1926 ;;		Nothing
  1927 ;; This function is called by:
  1928 ;;		_USART_Cadena
  1929 ;; This function uses a non-reentrant model
  1930 ;;
  1931                           
  1932                           
  1933                           ;psect for function _transmision_tx
  1934  03BD                     _transmision_tx:
  1935                           
  1936                           ;incstack = 0
  1937                           ; Regs used in _transmision_tx: [wreg]
  1938                           ;transmision_tx@data stored from wreg
  1939  03BD  00F9               	movwf	transmision_tx@data
  1940  03BE                     l1368:
  1941  03BE                     l169:	
  1942                           ;main_brazo.c: 350: void transmision_tx(char data);main_brazo.c: 351: {;main_brazo.c: 35
      +                          2:     while(TXSTAbits.TRMT == 0);
  1943                           
  1944  03BE  1683               	bsf	3,5	;RP0=1, select bank1
  1945  03BF  1303               	bcf	3,6	;RP1=0, select bank1
  1946  03C0  1C98               	btfss	24,1	;volatile
  1947  03C1  2BC3               	goto	u511
  1948  03C2  2BC4               	goto	u510
  1949  03C3                     u511:
  1950  03C3  2BBE               	goto	l169
  1951  03C4                     u510:
  1952  03C4                     l1370:
  1953                           
  1954                           ;main_brazo.c: 353:     TXREG = data;
  1955  03C4  0879               	movf	transmision_tx@data,w
  1956  03C5  1283               	bcf	3,5	;RP0=0, select bank0
  1957  03C6  1303               	bcf	3,6	;RP1=0, select bank0
  1958  03C7  0099               	movwf	25	;volatile
  1959  03C8                     l172:
  1960  03C8  0008               	return
  1961  03C9                     __end_of_transmision_tx:
  1962                           
  1963                           	psect	text10
  1964  00DC                     __ptext10:	
  1965 ;; *************** function _isr *****************
  1966 ;; Defined at:
  1967 ;;		line 82 in file "main_brazo.c"
  1968 ;; Parameters:    Size  Location     Type
  1969 ;;		None
  1970 ;; Auto vars:     Size  Location     Type
  1971 ;;		None
  1972 ;; Return value:  Size  Location     Type
  1973 ;;                  1    wreg      void 
  1974 ;; Registers used:
  1975 ;;		wreg, status,2, status,0
  1976 ;; Tracked objects:
  1977 ;;		On entry : 0/0
  1978 ;;		On exit  : 0/0
  1979 ;;		Unchanged: 0/0
  1980 ;; Data sizes:     COMMON   BANK0   BANK1   BANK3   BANK2
  1981 ;;      Params:         0       0       0       0       0
  1982 ;;      Locals:         0       0       0       0       0
  1983 ;;      Temps:          4       0       0       0       0
  1984 ;;      Totals:         4       0       0       0       0
  1985 ;;Total ram usage:        4 bytes
  1986 ;; Hardware stack levels used:    1
  1987 ;; This function calls:
  1988 ;;		Nothing
  1989 ;; This function is called by:
  1990 ;;		Interrupt level 1
  1991 ;; This function uses a non-reentrant model
  1992 ;;
  1993                           
  1994                           
  1995                           ;psect for function _isr
  1996  00DC                     _isr:
  1997  00DC                     i1l966:
  1998                           
  1999                           ;main_brazo.c: 84:     if (PIR1bits.ADIF)
  2000  00DC  1283               	bcf	3,5	;RP0=0, select bank0
  2001  00DD  1303               	bcf	3,6	;RP1=0, select bank0
  2002  00DE  1F0C               	btfss	12,6	;volatile
  2003  00DF  28E1               	goto	u9_21
  2004  00E0  28E2               	goto	u9_20
  2005  00E1                     u9_21:
  2006  00E1  2959               	goto	i1l111
  2007  00E2                     u9_20:
  2008  00E2                     i1l968:
  2009                           
  2010                           ;main_brazo.c: 85:     {;main_brazo.c: 86:         if (ADCON0bits.CHS ==0)
  2011  00E2  0C1F               	rrf	31,w	;volatile
  2012  00E3  00F5               	movwf	??_isr
  2013  00E4  0C75               	rrf	??_isr,w
  2014  00E5  390F               	andlw	15
  2015  00E6  3A00               	xorlw	0
  2016  00E7  1D03               	skipz
  2017  00E8  28EA               	goto	u10_21
  2018  00E9  28EB               	goto	u10_20
  2019  00EA                     u10_21:
  2020  00EA  2913               	goto	i1l108
  2021  00EB                     u10_20:
  2022  00EB                     i1l970:
  2023                           
  2024                           ;main_brazo.c: 87:         {;main_brazo.c: 88:             CCPR1L = (ADRESH>>1)+62;
  2025  00EB  081E               	movf	30,w	;volatile
  2026  00EC  00F5               	movwf	??_isr
  2027  00ED  1003               	clrc
  2028  00EE  0C75               	rrf	??_isr,w
  2029  00EF  3E3E               	addlw	62
  2030  00F0  0095               	movwf	21	;volatile
  2031                           
  2032                           ;main_brazo.c: 89:             CCP1CONbits.DC1B1 = ADRESH & 0b01;
  2033  00F1  081E               	movf	30,w	;volatile
  2034  00F2  3901               	andlw	1
  2035  00F3  00F5               	movwf	??_isr
  2036  00F4  0EF5               	swapf	??_isr,f
  2037  00F5  0DF5               	rlf	??_isr,f
  2038  00F6  0817               	movf	23,w	;volatile
  2039  00F7  0675               	xorwf	??_isr,w
  2040  00F8  39DF               	andlw	-33
  2041  00F9  0675               	xorwf	??_isr,w
  2042  00FA  0097               	movwf	23	;volatile
  2043                           
  2044                           ;main_brazo.c: 90:             CCP1CONbits.DC1B0 = (ADRESL>>7);
  2045  00FB  1683               	bsf	3,5	;RP0=1, select bank1
  2046  00FC  1303               	bcf	3,6	;RP1=0, select bank1
  2047  00FD  081E               	movf	30,w	;volatile
  2048  00FE  00F5               	movwf	??_isr
  2049  00FF  3007               	movlw	7
  2050  0100                     u11_25:
  2051  0100  1003               	clrc
  2052  0101  0CF5               	rrf	??_isr,f
  2053  0102  3EFF               	addlw	-1
  2054  0103  1D03               	skipz
  2055  0104  2900               	goto	u11_25
  2056  0105  0875               	movf	??_isr,w
  2057  0106  00F6               	movwf	??_isr+1
  2058  0107  0EF6               	swapf	??_isr+1,f
  2059  0108  1283               	bcf	3,5	;RP0=0, select bank0
  2060  0109  1303               	bcf	3,6	;RP1=0, select bank0
  2061  010A  0817               	movf	23,w	;volatile
  2062  010B  0676               	xorwf	??_isr+1,w
  2063  010C  39EF               	andlw	-17
  2064  010D  0676               	xorwf	??_isr+1,w
  2065  010E  0097               	movwf	23	;volatile
  2066                           
  2067                           ;main_brazo.c: 91:             ADCON0bits.CHS = 1;
  2068  010F  081F               	movf	31,w	;volatile
  2069  0110  39C3               	andlw	-61
  2070  0111  3804               	iorlw	4
  2071  0112  009F               	movwf	31	;volatile
  2072  0113                     i1l108:	
  2073                           ;main_brazo.c: 92:         }
  2074                           
  2075                           
  2076                           ;main_brazo.c: 93:         if (ADCON0bits.CHS ==1)
  2077  0113  0C1F               	rrf	31,w	;volatile
  2078  0114  00F5               	movwf	??_isr
  2079  0115  0C75               	rrf	??_isr,w
  2080  0116  390F               	andlw	15
  2081  0117  3A01               	xorlw	1
  2082  0118  1D03               	skipz
  2083  0119  291B               	goto	u12_21
  2084  011A  291C               	goto	u12_20
  2085  011B                     u12_21:
  2086  011B  2944               	goto	i1l109
  2087  011C                     u12_20:
  2088  011C                     i1l972:
  2089                           
  2090                           ;main_brazo.c: 94:         {;main_brazo.c: 95:             CCPR2L = (ADRESH>>1)+62;
  2091  011C  081E               	movf	30,w	;volatile
  2092  011D  00F5               	movwf	??_isr
  2093  011E  1003               	clrc
  2094  011F  0C75               	rrf	??_isr,w
  2095  0120  3E3E               	addlw	62
  2096  0121  009B               	movwf	27	;volatile
  2097                           
  2098                           ;main_brazo.c: 96:             CCP2CONbits.DC2B1 = ADRESH & 0b01;
  2099  0122  081E               	movf	30,w	;volatile
  2100  0123  3901               	andlw	1
  2101  0124  00F5               	movwf	??_isr
  2102  0125  0EF5               	swapf	??_isr,f
  2103  0126  0DF5               	rlf	??_isr,f
  2104  0127  081D               	movf	29,w	;volatile
  2105  0128  0675               	xorwf	??_isr,w
  2106  0129  39DF               	andlw	-33
  2107  012A  0675               	xorwf	??_isr,w
  2108  012B  009D               	movwf	29	;volatile
  2109                           
  2110                           ;main_brazo.c: 97:             CCP2CONbits.DC2B0 = (ADRESL>>7);
  2111  012C  1683               	bsf	3,5	;RP0=1, select bank1
  2112  012D  1303               	bcf	3,6	;RP1=0, select bank1
  2113  012E  081E               	movf	30,w	;volatile
  2114  012F  00F5               	movwf	??_isr
  2115  0130  3007               	movlw	7
  2116  0131                     u13_25:
  2117  0131  1003               	clrc
  2118  0132  0CF5               	rrf	??_isr,f
  2119  0133  3EFF               	addlw	-1
  2120  0134  1D03               	skipz
  2121  0135  2931               	goto	u13_25
  2122  0136  0875               	movf	??_isr,w
  2123  0137  00F6               	movwf	??_isr+1
  2124  0138  0EF6               	swapf	??_isr+1,f
  2125  0139  1283               	bcf	3,5	;RP0=0, select bank0
  2126  013A  1303               	bcf	3,6	;RP1=0, select bank0
  2127  013B  081D               	movf	29,w	;volatile
  2128  013C  0676               	xorwf	??_isr+1,w
  2129  013D  39EF               	andlw	-17
  2130  013E  0676               	xorwf	??_isr+1,w
  2131  013F  009D               	movwf	29	;volatile
  2132                           
  2133                           ;main_brazo.c: 98:             ADCON0bits.CHS = 2;
  2134  0140  081F               	movf	31,w	;volatile
  2135  0141  39C3               	andlw	-61
  2136  0142  3808               	iorlw	8
  2137  0143  009F               	movwf	31	;volatile
  2138  0144                     i1l109:	
  2139                           ;main_brazo.c: 99:         }
  2140                           
  2141                           
  2142                           ;main_brazo.c: 100:         if (ADCON0bits.CHS == 2)
  2143  0144  0C1F               	rrf	31,w	;volatile
  2144  0145  00F5               	movwf	??_isr
  2145  0146  0C75               	rrf	??_isr,w
  2146  0147  390F               	andlw	15
  2147  0148  3A02               	xorlw	2
  2148  0149  1D03               	skipz
  2149  014A  294C               	goto	u14_21
  2150  014B  294D               	goto	u14_20
  2151  014C                     u14_21:
  2152  014C  2951               	goto	i1l978
  2153  014D                     u14_20:
  2154  014D                     i1l974:
  2155                           
  2156                           ;main_brazo.c: 101:         {;main_brazo.c: 102:             PORTE = ADRESH;
  2157  014D  081E               	movf	30,w	;volatile
  2158  014E  0089               	movwf	9	;volatile
  2159  014F                     i1l976:
  2160                           
  2161                           ;main_brazo.c: 103:             ADCON0bits.CHS = 0;
  2162  014F  30C3               	movlw	-61
  2163  0150  059F               	andwf	31,f	;volatile
  2164  0151                     i1l978:
  2165                           
  2166                           ;main_brazo.c: 106:         _delay((unsigned long)((50)*(8000000/4000000.0)));
  2167  0151  3021               	movlw	33
  2168  0152  00F5               	movwf	??_isr
  2169  0153                     u74_27:
  2170  0153  0BF5               	decfsz	??_isr,f
  2171  0154  2953               	goto	u74_27
  2172  0155                     i1l980:
  2173                           
  2174                           ;main_brazo.c: 107:         PIR1bits.ADIF =0;
  2175  0155  1283               	bcf	3,5	;RP0=0, select bank0
  2176  0156  1303               	bcf	3,6	;RP1=0, select bank0
  2177  0157  130C               	bcf	12,6	;volatile
  2178  0158                     i1l982:
  2179                           
  2180                           ;main_brazo.c: 108:         ADCON0bits.GO = 1;
  2181  0158  149F               	bsf	31,1	;volatile
  2182  0159                     i1l111:
  2183  0159  0878               	movf	??_isr+3,w
  2184  015A  008A               	movwf	10
  2185  015B  0E77               	swapf	??_isr+2,w
  2186  015C  0083               	movwf	3
  2187  015D  0EFE               	swapf	btemp,f
  2188  015E  0E7E               	swapf	btemp,w
  2189  015F  0009               	retfie
  2190  0160                     __end_of_isr:
  2191  0001                     
  2192                           	psect	intentry
  2193  0004                     __pintentry:	
  2194                           ;incstack = 0
  2195                           ; Regs used in _isr: [wreg+status,2+status,0]
  2196                           
  2197  0004                     interrupt_function:
  2198  007E                     saved_w	set	btemp
  2199  0004  00FE               	movwf	btemp
  2200  0005  0E03               	swapf	3,w
  2201  0006  00F7               	movwf	??_isr+2
  2202  0007  080A               	movf	10,w
  2203  0008  00F8               	movwf	??_isr+3
  2204  0009  120A  118A  28DC   	ljmp	_isr
  2205                           
  2206                           	psect	functab
  2207  0024                     __pfunctab:
  2208  0024                     __fptable:
  2209  0024                     fptable:
  2210  0024  00FF               	movwf	(btemp+1)& (0+127)
  2211  0025  3000               	movlw	high fptable
  2212  0026  008A               	movwf	10
  2213  0027  087F               	movf	(btemp+1)& (0+127),w
  2214  0028  0782               	addwf	2,f
  2215  0029                     fpbase:
  2216  0029  2829               	goto	fpbase	; Call via a null pointer and you will get stuck here.
  2217  002A                     __end_of__fptable:
  2218  007E                     btemp	set	126	;btemp
  2219  007E                     wtemp0	set	126
  2220                           
  2221                           	psect	config
  2222                           
  2223                           ;Config register CONFIG1 @ 0x2007
  2224                           ;	Oscillator Selection bits
  2225                           ;	FOSC = INTRC_NOCLKOUT, INTOSCIO oscillator: I/O function on RA6/OSC2/CLKOUT pin, I/O f
      +                          unction on RA7/OSC1/CLKIN
  2226                           ;	Watchdog Timer Enable bit
  2227                           ;	WDTE = OFF, WDT disabled and can be enabled by SWDTEN bit of the WDTCON register
  2228                           ;	Power-up Timer Enable bit
  2229                           ;	PWRTE = OFF, PWRT disabled
  2230                           ;	RE3/MCLR pin function select bit
  2231                           ;	MCLRE = OFF, RE3/MCLR pin function is digital input, MCLR internally tied to VDD
  2232                           ;	Code Protection bit
  2233                           ;	CP = OFF, Program memory code protection is disabled
  2234                           ;	Data Code Protection bit
  2235                           ;	CPD = OFF, Data memory code protection is disabled
  2236                           ;	Brown Out Reset Selection bits
  2237                           ;	BOREN = OFF, BOR disabled
  2238                           ;	Internal External Switchover bit
  2239                           ;	IESO = OFF, Internal/External Switchover mode is disabled
  2240                           ;	Fail-Safe Clock Monitor Enabled bit
  2241                           ;	FCMEN = OFF, Fail-Safe Clock Monitor is disabled
  2242                           ;	Low Voltage Programming Enable bit
  2243                           ;	LVP = ON, RB3/PGM pin has PGM function, low voltage programming enabled
  2244                           ;	In-Circuit Debugger Mode bit
  2245                           ;	DEBUG = 0x1, unprogrammed default
  2246  2007                     	org	8199
  2247  2007  30D4               	dw	12500
  2248                           
  2249                           ;Config register CONFIG2 @ 0x2008
  2250                           ;	Brown-out Reset Selection bit
  2251                           ;	BOR4V = BOR40V, Brown-out Reset set to 4.0V
  2252                           ;	Flash Program Memory Self Write Enable bits
  2253                           ;	WRT = OFF, Write protection off
  2254  2008                     	org	8200
  2255  2008  3FFF               	dw	16383

Data Sizes:
    Strings     172
    Constant    0
    Data        0
    BSS         15
    Persistent  0
    Stack       0

Auto Spaces:
    Space          Size  Autos    Used
    COMMON           14      5      10
    BANK0            80      4      14
    BANK1            80      0       0
    BANK3            96      0       0
    BANK2            96      0       0

Pointer List with Targets:

    USART_Cadena@str	PTR unsigned char  size(1) Largest target is 31
		 -> STR_7(CODE[24]), STR_6(CODE[23]), STR_5(CODE[24]), STR_4(CODE[23]), 
		 -> STR_3(CODE[24]), STR_2(CODE[23]), STR_1(CODE[31]), 


Critical Paths under _main in COMMON

    _main->_setup
    _USART_Cadena->_transmision_tx

Critical Paths under _isr in COMMON

    None.

Critical Paths under _main in BANK0

    _main->_USART_Cadena
    _main->_servo1_18
    _main->_servo1_19
    _main->_servo2_18
    _main->_servo2_19
    _main->_servo3_18
    _main->_servo3_19

Critical Paths under _isr in BANK0

    None.

Critical Paths under _main in BANK1

    None.

Critical Paths under _isr in BANK1

    None.

Critical Paths under _main in BANK3

    None.

Critical Paths under _isr in BANK3

    None.

Critical Paths under _main in BANK2

    None.

Critical Paths under _isr in BANK2

    None.

Call Graph Tables:

 ---------------------------------------------------------------------------------
 (Depth) Function   	        Calls       Base Space   Used Autos Params    Refs
 ---------------------------------------------------------------------------------
 (0) _main                                                 2     2      0     339
                                              2 BANK0      2     2      0
                       _USART_Cadena
                          _servo1_18
                          _servo1_19
                          _servo2_18
                          _servo2_19
                          _servo3_18
                          _servo3_19
                              _setup
 ---------------------------------------------------------------------------------
 (1) _setup                                                1     1      0       0
                                              4 COMMON     1     1      0
 ---------------------------------------------------------------------------------
 (1) _servo3_19                                            2     2      0       0
                                              0 BANK0      2     2      0
 ---------------------------------------------------------------------------------
 (1) _servo3_18                                            2     2      0       0
                                              0 BANK0      2     2      0
 ---------------------------------------------------------------------------------
 (1) _servo2_19                                            2     2      0       0
                                              0 BANK0      2     2      0
 ---------------------------------------------------------------------------------
 (1) _servo2_18                                            2     2      0       0
                                              0 BANK0      2     2      0
 ---------------------------------------------------------------------------------
 (1) _servo1_19                                            2     2      0       0
                                              0 BANK0      2     2      0
 ---------------------------------------------------------------------------------
 (1) _servo1_18                                            2     2      0       0
                                              0 BANK0      2     2      0
 ---------------------------------------------------------------------------------
 (1) _USART_Cadena                                         2     2      0     339
                                              0 BANK0      2     2      0
                     _transmision_tx
 ---------------------------------------------------------------------------------
 (2) _transmision_tx                                       1     1      0      22
                                              4 COMMON     1     1      0
 ---------------------------------------------------------------------------------
 Estimated maximum stack depth 2
 ---------------------------------------------------------------------------------
 (Depth) Function   	        Calls       Base Space   Used Autos Params    Refs
 ---------------------------------------------------------------------------------
 (3) _isr                                                  4     4      0       0
                                              0 COMMON     4     4      0
 ---------------------------------------------------------------------------------
 Estimated maximum stack depth 3
 ---------------------------------------------------------------------------------

 Call Graph Graphs:

 _main (ROOT)
   _USART_Cadena
     _transmision_tx
   _servo1_18
   _servo1_19
   _servo2_18
   _servo2_19
   _servo3_18
   _servo3_19
   _setup

 _isr (ROOT)

 Address spaces:
Name               Size   Autos  Total    Cost      Usage
BITCOMMON            E      0       0       0        0.0%
EEDATA             100      0       0       0        0.0%
NULL                 0      0       0       0        0.0%
CODE                 0      0       0       0        0.0%
COMMON               E      5       A       1       71.4%
BITSFR0              0      0       0       1        0.0%
SFR0                 0      0       0       1        0.0%
BITSFR1              0      0       0       2        0.0%
SFR1                 0      0       0       2        0.0%
STACK                0      0       0       2        0.0%
ABS                  0      0      18       3        0.0%
BITBANK0            50      0       0       4        0.0%
BITSFR3              0      0       0       4        0.0%
SFR3                 0      0       0       4        0.0%
BANK0               50      4       E       5       17.5%
BITSFR2              0      0       0       5        0.0%
SFR2                 0      0       0       5        0.0%
BITBANK1            50      0       0       6        0.0%
BANK1               50      0       0       7        0.0%
BITBANK3            60      0       0       8        0.0%
BANK3               60      0       0       9        0.0%
BITBANK2            60      0       0      10        0.0%
BANK2               60      0       0      11        0.0%
DATA                 0      0      18      12        0.0%


Microchip Technology PIC Macro Assembler V2.31 build 20201012212115 
Symbol Table                                                                                   Mon May 24 01:21:48 2021

                      _x 0072                        pc 0002                       fsr 0004  
                    l141 0342                      l133 0253                      l117 018F  
                    l143 0366                      l151 030B                      l136 0377  
                    l153 032F                      l161 029D                      l138 0399  
                    l146 02D4                      l163 02C1                      l172 03C8  
                    l148 02F8                      l156 0266                      l158 028A  
                    l169 03BE                      l178 03BC                      l800 01ED  
                    l810 01FB                      l802 01F5                      l820 0206  
                    l812 01FC                      l804 01F8                      l830 0216  
                    l822 020A                      l814 01FD                      l806 01F9  
                    l840 0227                      l832 021A                      l824 020D  
                    l816 01FE                      l808 01FA                      l850 022E  
                    l842 0229                      l834 021C                      l826 0211  
                    l818 0204                      l860 0235                      l852 022F  
                    l844 022A                      l836 021E                      l828 0212  
                    l870 0241                      l862 0238                      l854 0232  
                    l846 022B                      l838 0221                      l880 0248  
                    l872 0242                      l864 023C                      l856 0233  
                    l848 022D                      l882 024B                      l874 0245  
                    l866 023D                      l858 0234                      l884 0250  
                    l876 0246                      l868 0240                      l878 0247  
                    l798 01DD                      u510 03C4                      _PR2 0092  
                    u511 03C3                      u520 03BC                      u521 03BB  
                    u530 0376                      u531 0375                      u540 0341  
                    u541 0340                      u550 02D3                      u535 0372  
                    u551 02D2                      u607 0208                      u560 030A  
                    u545 033D                      u561 0309                      u617 024D  
                    u570 0265                      u707 0380                      u555 02CF  
                    u627 026F                      u571 0264                      u580 029C  
                    u717 038D                      u565 0306                      u581 029B  
                    u637 027C                      u590 0195                      u727 034B  
                    u647 02A6                      u575 0261                      u591 0194  
                    u737 0359                      u657 02B4                      u585 0298  
                    u667 02DD                      u677 02EA                      u687 0314  
                    u697 0322                      _isr 00DC                      fsr0 0004  
                   l1400 0350                     l1410 02D7                     l1412 02E1  
                   l1404 02C2                     l1422 030E                     l1406 02C6  
                   l1430 0258                     l1510 01C6                     l1424 0319  
                   l1416 02F9                     l1440 028B                     l1370 03C4  
                   l1418 02FD                     l1442 028F                     l1434 0269  
                   l1372 039D                     l1380 0367                     l1436 0273  
                   l1428 0254                     l1460 0177                     l1452 0160  
                   l1374 039E                     l1382 0369                     l1446 02A0  
                   l1470 019A                     l1462 017D                     l1454 0165  
                   l1368 03BE                     l1376 03AA                     l1392 0330  
                   l1448 02AB                     l1480 01B8                     l1472 01A0  
                   l1464 0183                     l1456 016B                     l1378 03B0  
                   l1394 0334                     l1386 037A                     l1474 01A6  
                   l1466 0189                     l1458 0171                     l1388 0384  
                   l1476 01AC                     l1484 01BE                     l1468 0195  
                   l1398 0345                     l1478 01B2                     ?_isr 0075  
                   STR_1 0030                     STR_2 0097                     STR_3 004F  
                   STR_4 00AE                     STR_5 0067                     STR_6 00C5  
                   STR_7 007F                     u9_20 00E2                     u9_21 00E1  
                   _main 0160                     btemp 007E                     start 000C  
                  ??_isr 0075                    ?_main 0075                    i1l111 0159  
                  i1l108 0113                    i1l109 0144                    i1l970 00EB  
                  i1l980 0155                    i1l972 011C                    i1l982 0158  
                  i1l974 014D                    i1l966 00DC                    i1l976 014F  
                  i1l968 00E2                    i1l978 0151                    _RCREG 001A  
                  u10_20 00EB                    u10_21 00EA                    u11_25 0100  
                  u12_20 011C                    u12_21 011B                    u13_25 0131  
                  u14_20 014D                    u14_21 014C                    _SPBRG 0099  
                  _PORTA 0005                    _PORTB 0006                    _PORTC 0007  
                  _PORTD 0008                    _PORTE 0009                    _TRISE 0089  
                  u74_27 0153                    _TXREG 0019                    _setup 01DD  
                  fpbase 0029                    pclath 000A                    status 0003  
                  wtemp0 007E          __initialization 000F             __end_of_main 01DD  
                 ??_main 002C          fp__recepcion_rx 0000                   _ADRESH 001E  
                 _ADRESL 009E                   _CCPR1L 0015                   _CCPR2L 001B  
                 ?_setup 0075                   _SPBRGH 009A         __end_of__fptable 002A  
         _transmision_tx 03BD                   fptable 0024                   fptotal 0001  
                 saved_w 007E  __end_of__initialization 0020   __end_of_transmision_tx 03C9  
         __pcstackCOMMON 0075            __end_of_setup 0254                  ??_setup 0079  
             __pbssBANK0 0020          ?_transmision_tx 0075               __pmaintext 0160  
             __pintentry 0004       __size_of_servo1_18 0037       __size_of_servo1_19 0033  
     __size_of_servo2_18 0037       __size_of_servo2_19 0037       __size_of_servo3_18 0037  
     __size_of_servo3_19 0037               __stringtab 002A                _ANSELbits 0188  
                __ptext1 01DD                  __ptext2 0254                  __ptext3 028B  
                __ptext4 02C2                  __ptext5 02F9                  __ptext6 0367  
                __ptext7 0330                  __ptext8 039A                  __ptext9 03BD  
              _T2CONbits 0012             __size_of_isr 0084     end_of_initialization 0020  
      __end_of_servo1_18 0367        __end_of_servo1_19 039A        __end_of_servo2_18 0330  
      __end_of_servo2_19 02F9        __end_of_servo3_18 02C2        __end_of_servo3_19 028B  
              _RCSTAbits 0018                _PORTDbits 0008                _TRISAbits 0085  
              _TRISBbits 0086                _TRISCbits 0087                _TRISDbits 0088  
          ?_USART_Cadena 0075              _CCP1CONbits 0017              _CCP2CONbits 001D  
              _TXSTAbits 0098              _BAUDCTLbits 0187      start_initialization 000F  
            __end_of_isr 0160           ??_USART_Cadena 002A         ??_transmision_tx 0079  
            __pbssCOMMON 0070                ___latbits 0002            __pcstackBANK0 002A  
      __size_of__fptable 0006                __pfunctab 0024            _dato_recibido 0074  
              __pstrings 002A           __size_of_setup 0077        interrupt_function 0004  
           _recepcion_rx 0000                 _PIE1bits 008C                 _PIR1bits 000C  
        USART_Cadena@str 002B                _servo1_18 0330                _servo1_19 0367  
              _servo2_18 02F9                _servo2_19 02C2                _servo3_18 028B  
              _servo3_19 0254     __end_of_USART_Cadena 03BD               _ADCON0bits 001F  
            __stringbase 002F               _ADCON1bits 009F               ?_servo1_18 0075  
             ?_servo1_19 0075               ?_servo2_18 0075               ?_servo2_19 0075  
             ?_servo3_18 0075               ?_servo3_19 0075       __end_of__stringtab 0030  
               __fptable 0024                 __ptext10 00DC            __size_of_main 007D  
               _servo1_1 0070                 _servo1_2 0028                 _servo2_1 0026  
               _servo2_2 0024                 _servo3_1 0022                 _servo3_2 0020  
     transmision_tx@data 0079               _INTCONbits 000B                 intlevel1 0024  
              stringcode 002A    __size_of_USART_Cadena 0023               _OSCCONbits 008F  
            ??_servo1_18 002A              ??_servo1_19 002A              ??_servo2_18 002A  
            ??_servo2_19 002A              ??_servo3_18 002A              ??_servo3_19 002A  
               stringdir 002A                 stringtab 002A             _USART_Cadena 039A  
__size_of_transmision_tx 000C  
